(dp0
S'5B 2B'
p1
F117.88553770501282
sS'8E 4E'
p2
F64.35060217278468
sS'8E 4B'
p3
F63.655321851358195
sS'5B 2E'
p4
F117.88553770501282
sS'10B 4B'
p5
F61.68468205316454
sS'4B 12B'
p6
F72.27724399837061
sS'10E 11E'
p7
F37.8549864614954
sS'4B 12E'
p8
F72.53275122315436
sS'2B 13B'
p9
F19.697715603592208
sS'7B 11E'
p10
F62.297672508690084
sS'4E 0E'
p11
F115.27792503337315
sS'4E 0B'
p12
F115.35163631262454
sS'7B 11B'
p13
F62.93647591023825
sS'2B 13E'
p14
F17.72004514666935
sS'13E 9E'
p15
F173.1040149736568
sS'11B 13B'
p16
F190.51771571168914
sS'13B 2E'
p17
F19.697715603592208
sS'13B 2B'
p18
F19.697715603592208
sS'10B 4E'
p19
F62.6418390534633
sS'11B 13E'
p20
F187.6725872363889
sS'9B 7E'
p21
F50.96076922496363
sS'9B 7B'
p22
F49.72926703662542
sS'11E 4B'
p23
F69.92138442565336
sS'8B 7B'
p24
F57.62811813689564
sS'3B 8E'
p25
F169.04733065032408
sS'4B 9B'
p26
F57.48912940721924
sS'5E 11E'
p27
F68.9492567037528
sS'5E 11B'
p28
F69.57010852370435
sS'4B 9E'
p29
F56.293871780150276
sS'3B 8B'
p30
F168.6001186239203
sS'8B 7E'
p31
F57.48912940721924
sS'12E 5E'
p32
F71.47027354082255
sS'12E 5B'
p33
F70.21395872616783
sS'10E 0B'
p34
F175.18276170902203
sS'2E 9B'
p35
F169.29559947027565
sS'8E 9B'
p36
F60.207972893961475
sS'12B 11B'
p37
F2.23606797749979
sS'2E 9E'
p38
F168.35973390332975
sS'10E 0E'
p39
F175.231275747225
sS'1B 3B'
p40
F28.460498941515414
sS'13B 8B'
p41
F172.40939649566667
sS'1B 3E'
p42
F29.410882339705484
sS'9E 5E'
p43
F53.75872022286245
sS'9E 5B'
p44
F52.952809179494906
sS'4E 9E'
p45
F57.271284253105414
sS'10E 13B'
p46
F180.3995565404749
sS'3B 7B'
p47
F118.84864324004712
sS'3B 7E'
p48
F118.1397477566293
sS'10E 13E'
p49
F177.341478509682
sS'4E 9B'
p50
F58.463663928973865
sS'13E 12E'
p51
F189.6549498431296
sS'5E 1E'
p52
F129.3560976529518
sS'5E 1B'
p53
F129.76902558006668
sS'13E 12B'
p54
F189.52572384771415
sS'0E 4E'
p55
F115.27792503337315
sS'0E 4B'
p56
F116.27553482998907
sS'1B 7E'
p57
F135.988970140964
sS'1E 0E'
p58
F48.0
sS'1E 0B'
p59
F47.0
sS'11B 3B'
p60
F181.7305698004604
sS'8E 9E'
p61
F59.033888572581766
sS'1B 7B'
p62
F136.4734406395618
sS'13E 1B'
p63
F51.03920062069938
sS'0B 3E'
p64
F21.93171219946131
sS'0B 3B'
p65
F22.847319317591726
sS'13E 1E'
p66
F50.039984012787215
sS'1E 10B'
p67
F179.07819521091898
sS'1E 10E'
p68
F179.2930561957155
sS'6E 2B'
p69
F155.97435686676192
sS'13B 8E'
p70
F172.70205557549104
sS'11B 3E'
p71
F181.46349495146399
sS'6E 2E'
p72
F155.97435686676192
sS'12E 8E'
p73
F37.48332962798263
sS'2B 0B'
p74
F14.317821063276353
sS'2B 0E'
p75
F15.297058540778355
sS'12E 8B'
p76
F36.76955262170047
sS'2E 6B'
p77
F155.32224567009067
sS'9B 12B'
p78
F34.0147027033899
sS'9B 12E'
p79
F34.92849839314596
sS'2E 6E'
p80
F155.97435686676192
sS'11E 1B'
p81
F198.53966858036205
sS'13E 8B'
p82
F169.83815825661793
sS'13E 8E'
p83
F170.14111789923092
sS'11E 1E'
p84
F198.15398053029367
sS'3E 7E'
p85
F117.881296226331
sS'3E 7B'
p86
F118.6001686339442
sS'6E 4E'
p87
F79.22752047110903
sS'8E 12E'
p88
F37.48332962798263
sS'7E 5B'
p89
F5.0
sS'7B 6E'
p90
F79.05694150420949
sS'7B 6B'
p91
F78.05767098754612
sS'7E 5E'
p92
F6.4031242374328485
sS'2B 6E'
p93
F155.97435686676192
sS'3E 8B'
p94
F168.15766411317682
sS'3E 8E'
p95
F168.6001186239203
sS'12B 4B'
p96
F72.27724399837061
sS'12B 4E'
p97
F73.24616030891995
sS'8E 12B'
p98
F38.2099463490856
sS'13B 9E'
p99
F176.13914953808538
sS'12E 6E'
p100
F88.45903006477066
sS'12E 6B'
p101
F87.78382538941898
sS'13B 9B'
p102
F177.18069872308325
sS'8E 0B'
p103
F169.1892431568863
sS'12E 4B'
p104
F72.53275122315436
sS'8E 0E'
p105
F168.86681142249356
sS'8B 10E'
p106
F63.788713735268246
sS'8B 10B'
p107
F64.76109943476871
sS'9E 6E'
p108
F103.83159442096611
sS'9E 6B'
p109
F102.95630140987001
sS'0E 13B'
p110
F5.830951894845301
sS'3B 2E'
p111
F9.219544457292887
sS'3B 2B'
p112
F9.219544457292887
sS'0E 13E'
p113
F2.8284271247461903
sS'5E 2E'
p114
F116.72617529928752
sS'8B 9E'
p115
F58.05170109479997
sS'8B 9B'
p116
F59.22837157984339
sS'5E 2B'
p117
F116.72617529928752
sS'10B 3E'
p118
F166.3640586184408
sS'10B 3B'
p119
F166.43316977093238
sS'1B 12B'
p120
F200.55173896029922
sS'5B 1B'
p121
F131.0953851209111
sS'5B 1E'
p122
F130.6789960169575
sS'1B 12E'
p123
F200.92784774639875
sS'0B 12E'
p124
F188.09572031282372
sS'0B 12B'
p125
F187.94946129212502
sS'13B 7B'
p126
F129.0968628588627
sS'6B 2B'
p127
F155.32224567009067
sS'6E 9E'
p128
F103.83159442096611
sS'6E 9B'
p129
F105.19030373565806
sS'6B 2E'
p130
F155.32224567009067
sS'9E 12B'
p131
F33.54101966249684
sS'9E 12E'
p132
F34.438350715445125
sS'7E 12E'
p133
F65.52098900352466
sS'3E 11E'
p134
F180.76780686836912
sS'6B 11B'
p135
F86.31338250816034
sS'5B 11B'
p136
F68.30812543175226
sS'5B 11E'
p137
F67.67569726275453
sS'6B 11E'
p138
F84.8999411071645
sS'3E 11B'
p139
F181.46349495146399
sS'7E 12B'
p140
F65.25335240430181
sS'4E 13E'
p141
F117.15374513859982
sS'4E 13B'
p142
F120.10412149464314
sS'8B 0B'
p143
F168.86681142249356
sS'8B 0E'
p144
F168.5496959356498
sS'10E 7B'
p145
F53.75872022286245
sS'11B 10E'
p146
F37.107950630558946
sS'12E 10E'
p147
F37.64306044943742
sS'11B 8B'
p148
F35.38361202590826
sS'7E 2B'
p149
F122.37646832622684
sS'7B 9E'
p150
F48.507731342539614
sS'7B 9B'
p151
F49.72926703662542
sS'7E 2E'
p152
F122.37646832622684
sS'11B 8E'
p153
F36.124783736376884
sS'0B 7B'
p154
F124.32618388738553
sS'2E 10E'
p155
F172.10461934532728
sS'2E 10B'
p156
F172.07265907168403
sS'0B 7E'
p157
F123.40583454602137
sS'10B 2E'
p158
F172.07265907168403
sS'4B 5B'
p159
F3.605551275463989
sS'11E 10E'
p160
F37.8549864614954
sS'12B 3B'
p161
F183.3930205869351
sS'12B 3E'
p162
F183.13383084509536
sS'11E 10B'
p163
F38.8329756778952
sS'11B 4E'
p164
F71.56814934033156
sS'1E 5E'
p165
F129.3560976529518
sS'10B 0E'
p166
F175.28548142958104
sS'3B 13B'
p167
F28.653097563788805
sS'3B 13E'
p168
F26.40075756488817
sS'1E 5B'
p169
F130.6789960169575
sS'4B 11B'
p170
F70.60453243241541
sS'4B 11E'
p171
F69.92138442565336
sS'6E 13E'
p172
F149.5125412799876
sS'7B 12E'
p173
F64.8459713474939
sS'7B 12B'
p174
F64.5600495662759
sS'6E 13B'
p175
F151.43315356948756
sS'13E 9B'
p176
F174.14074767268
sS'7B 2B'
p177
F123.1665539016173
sS'7B 2E'
p178
F123.1665539016173
sS'9B 2E'
p179
F169.29559947027565
sS'7E 9E'
p180
F49.72926703662542
sS'7E 9B'
p181
F50.96076922496363
sS'9B 2B'
p182
F169.29559947027565
sS'3B 0E'
p183
F23.769728648009426
sS'3E 4E'
p184
F109.89540481748998
sS'11E 2B'
p185
F185.06485349736184
sS'3E 4B'
p186
F110.86027241532469
sS'5E 10E'
p187
F58.69412236331676
sS'5E 10B'
p188
F58.9406481131655
sS'4B 6E'
p189
F79.1580697086532
sS'8B 4E'
p190
F63.63961030678928
sS'8B 4B'
p191
F62.93647591023825
sS'4B 6B'
p192
F78.16009211867653
sS'9E 11B'
p193
F33.61547262794322
sS'10E 1B'
p194
F179.51323071016242
sS'10E 1E'
p195
F179.2930561957155
sS'3B 0B'
p196
F22.847319317591726
sS'7E 3E'
p197
F117.881296226331
sS'2E 8E'
p198
F171.49344010777787
sS'2E 8B'
p199
F171.09354166653983
sS'1B 2E'
p200
F34.132096331752024
sS'4E 10E'
p201
F62.36184731067546
sS'4E 10B'
p202
F62.6418390534633
sS'1B 2B'
p203
F34.132096331752024
sS'3B 6B'
p204
F155.58920271021378
sS'10E 12B'
p205
F36.68787265568828
sS'4E 8E'
p206
F64.35060217278468
sS'4E 8B'
p207
F63.63961030678928
sS'10E 12E'
p208
F37.64306044943742
sS'3B 6E'
p209
F156.28499608087785
sS'5E 6B'
p210
F81.05553651663777
sS'5E 6E'
p211
F82.05485969764375
sS'7E 3B'
p212
F118.1397477566293
sS'0E 7B'
p213
F124.25779653607253
sS'0E 7E'
p214
F123.3288287465668
sS'10B 5E'
p215
F58.9406481131655
sS'10B 5B'
p216
F58.240879114244144
sS'12E 4E'
p217
F73.49829930005184
sS'11E 5E'
p218
F68.9492567037528
sS'11E 5B'
p219
F67.67569726275453
sS'13E 4B'
p220
F118.15244390193544
sS'10B 11B'
p221
F38.07886552931954
sS'10E 8B'
p222
F63.788713735268246
sS'13B 12E'
p223
F192.50194804209124
sS'13B 12B'
p224
F192.37983262286096
sS'11B 7B'
p225
F62.93647591023825
sS'10B 11E'
p226
F38.8329756778952
sS'6E 5B'
p227
F81.02468759581859
sS'4B 1B'
p228
F129.24782396620841
sS'4B 1E'
p229
F128.80993750483694
sS'6E 5E'
p230
F82.05485969764375
sS'2B 5E'
p231
F116.72617529928752
sS'2B 5B'
p232
F117.88553770501282
sS'2E 1B'
p233
F34.132096331752024
sS'12E 13E'
p234
F189.6549498431296
sS'2E 1E'
p235
F33.13608305156178
sS'12B 9E'
p236
F33.54101966249684
sS'12B 9B'
p237
F34.0147027033899
sS'0B 11E'
p238
F185.28356645962967
sS'0B 11B'
p239
F186.11824198610947
sS'1B 9E'
p240
F176.8219443394965
sS'3E 0B'
p241
F21.93171219946131
sS'3E 0E'
p242
F22.847319317591726
sS'7B 5B'
p243
F5.385164807134504
sS'1E 8E'
p244
F189.74720024284943
sS'1E 8B'
p245
F189.21152184790438
sS'7B 5E'
p246
F6.708203932499369
sS'9B 1E'
p247
F177.2935419015594
sS'7E 6E'
p248
F78.02563681252464
sS'7E 6B'
p249
F77.02596964660685
sS'9B 1B'
p250
F177.53872816937718
sS'3E 9B'
p251
F163.783393541592
sS'1B 9B'
p252
F177.53872816937718
sS'3E 9E'
p253
F162.88953311984167
sS'12B 7E'
p254
F65.25335240430181
sS'12B 7B'
p255
F64.5600495662759
sS'8E 7B'
p256
F58.412327466040935
sS'13B 5E'
p257
F123.01625908797584
sS'8E 7E'
p258
F58.25804665451803
sS'4E 3B'
p259
F110.16351483136329
sS'2B 12B'
p260
F187.5366630821824
sS'2B 12E'
p261
F187.7578227398262
sS'4E 3E'
p262
F109.89540481748998
sS'0E 10B'
p263
F175.28548142958104
sS'0E 10E'
p264
F175.231275747225
sS'13B 3E'
p265
F27.784887978899608
sS'12B 8E'
p266
F38.2099463490856
sS'11B 12B'
p267
F2.23606797749979
sS'10E 9B'
p268
F5.0
sS'11B 12E'
p269
F2.0
sS'13B 3B'
p270
F28.653097563788805
sS'10E 9E'
p271
F6.4031242374328485
sS'9B 6B'
p272
F104.31682510506155
sS'5B 4E'
p273
F4.47213595499958
sS'5B 4B'
p274
F3.605551275463989
sS'9B 6E'
p275
F105.19030373565806
sS'6B 10E'
p276
F109.27488274987991
sS'11E 0E'
p277
F185.129684275645
sS'11E 0B'
p278
F185.28356645962967
sS'10B 12B'
p279
F37.64306044943742
sS'13B 11E'
p280
F189.6549498431296
sS'12B 8B'
p281
F37.48332962798263
sS'13B 11B'
p282
F190.51771571168914
sS'10B 12E'
p283
F38.600518131237564
sS'6B 10B'
p284
F110.14535850411491
sS'6E 8B'
p285
F51.73973328110612
sS'4B 2B'
p286
F115.31695452100702
sS'4B 2E'
p287
F115.31695452100702
sS'6E 8E'
p288
F51.088159097779204
sS'6B 3E'
p289
F154.8967397978408
sS'6B 3B'
p290
F155.58920271021378
sS'3E 10B'
p291
F166.3640586184408
sS'7E 11B'
p292
F63.60031446463138
sS'7E 11E'
p293
F62.93647591023825
sS'3E 10E'
p294
F166.43316977093238
sS'5B 12E'
p295
F70.21395872616783
sS'1B 6B'
p296
F181.289823211343
sS'1B 6E'
p297
F182.03571078225283
sS'5B 12B'
p298
F69.92138442565336
sS'8E 13B'
p299
F172.70205557549104
sS'12E 13B'
p300
F192.50194804209124
sS'8E 13E'
p301
F170.14111789923092
sS'2B 8B'
p302
F171.09354166653983
sS'2B 8E'
p303
F171.49344010777787
sS'10B 9B'
p304
F5.830951894845301
sS'10B 9E'
p305
F7.211102550927978
sS'13E 0B'
p306
F3.605551275463989
sS'13E 0E'
p307
F2.8284271247461903
sS'10E 8E'
p308
F64.76109943476871
sS'1E 13E'
p309
F50.039984012787215
sS'1E 13B'
p310
F51.24451190127583
sS'2B 1B'
p311
F34.132096331752024
sS'12E 9B'
p312
F34.92849839314596
sS'6E 1E'
p313
F181.289823211343
sS'6E 1B'
p314
F182.03571078225283
sS'12E 9E'
p315
F34.438350715445125
sS'2B 1E'
p316
F33.13608305156178
sS'1E 6E'
p317
F181.289823211343
sS'11B 6B'
p318
F86.31338250816034
sS'11B 6E'
p319
F87.0
sS'1E 6B'
p320
F180.54639292990598
sS'2E 5E'
p321
F116.72617529928752
sS'2E 5B'
p322
F117.88553770501282
sS'1B 13E'
p323
F51.03920062069938
sS'1B 8E'
p324
F190.2866259094422
sS'4B 10E'
p325
F61.40032573203501
sS'1B 13B'
p326
F52.23983154643591
sS'7B 13E'
p327
F126.14277624977183
sS'6E 10B'
p328
F111.01801655587259
sS'6E 10E'
p329
F110.14535850411491
sS'7B 13B'
p330
F129.0968628588627
sS'5E 8B'
p331
F63.7808748764079
sS'5E 8E'
p332
F64.53681120105021
sS'2B 11E'
p333
F185.06485349736184
sS'11E 8E'
p334
F34.713109915419565
sS'7B 1E'
p335
F136.0588108135596
sS'9B 5B'
p336
F54.12947441089743
sS'9B 5E'
p337
F54.91812087098393
sS'7B 1B'
p338
F136.4734406395618
sS'4E 2B'
p339
F114.33722053644648
sS'3E 5E'
p340
F112.05802068571441
sS'3E 5B'
p341
F113.26517558367179
sS'12E 7E'
p342
F65.52098900352466
sS'8B 1E'
p343
F189.21152184790438
sS'10E 4E'
p344
F62.36184731067546
sS'8B 1B'
p345
F189.74720024284943
sS'10B 0B'
p346
F175.231275747225
sS'10E 4B'
p347
F61.40032573203501
sS'0E 3E'
p348
F22.847319317591726
sS'0E 3B'
p349
F23.769728648009426
sS'7E 1E'
p350
F135.56548233234005
sS'8E 3E'
p351
F168.6001186239203
sS'5B 9B'
p352
F54.12947441089743
sS'5B 9E'
p353
F52.952809179494906
sS'8E 3B'
p354
F169.04733065032408
sS'9E 7E'
p355
F49.72926703662542
sS'9E 7B'
p356
F48.507731342539614
sS'3B 1B'
p357
F28.460498941515414
sS'4E 7E'
p358
F8.06225774829855
sS'4E 7B'
p359
F9.0
sS'3B 1E'
p360
F27.51363298439521
sS'13E 10B'
p361
F177.40631330367023
sS'5E 3E'
p362
F112.05802068571441
sS'5E 3B'
p363
F112.29425630903836
sS'13E 10E'
p364
F177.341478509682
sS'11B 1B'
p365
F199.07787421006887
sS'5B 0B'
p366
F119.20570456148481
sS'9E 1B'
p367
F176.8219443394965
sS'5B 0E'
p368
F119.15116449284078
sS'3B 10E'
p369
F166.50825805346713
sS'6B 9E'
p370
F102.95630140987001
sS'3B 10B'
p371
F166.43316977093238
sS'6B 9B'
p372
F104.31682510506155
sS'13E 7B'
p373
F126.14277624977183
sS'13E 7E'
p374
F125.19584657647394
sS'11E 4E'
p375
F70.8801805866774
sS'1B 8B'
p376
F189.74720024284943
sS'2B 6B'
p377
F155.32224567009067
sS'6B 7B'
p378
F78.05767098754612
sS'6B 7E'
p379
F77.02596964660685
sS'6E 4B'
p380
F79.1580697086532
sS'12E 11B'
p381
F2.0
sS'10B 1B'
p382
F179.2930561957155
sS'12E 11E'
p383
F3.1622776601683795
sS'2E 0E'
p384
F15.297058540778355
sS'9B 10E'
p385
F5.0
sS'9B 10B'
p386
F5.830951894845301
sS'2E 0B'
p387
F14.317821063276353
sS'0B 10E'
p388
F175.18276170902203
sS'11E 3E'
p389
F180.76780686836912
sS'11E 3B'
p390
F181.0414317221337
sS'0B 10B'
p391
F175.231275747225
sS'11B 5B'
p392
F68.30812543175226
sS'7B 8B'
p393
F57.62811813689564
sS'11B 9B'
p394
F34.17601498127012
sS'11B 9E'
p395
F33.61547262794322
sS'7B 8E'
p396
F58.412327466040935
sS'9E 1E'
p397
F176.57009939398006
sS'2E 11B'
p398
F185.80904176062046
sS'12E 2E'
p399
F187.7578227398262
sS'2E 11E'
p400
F185.06485349736184
sS'0B 4E'
p401
F115.35163631262454
sS'0B 4B'
p402
F116.3486140871476
sS'11B 10B'
p403
F38.07886552931954
sS'12B 2E'
p404
F187.5366630821824
sS'12B 2B'
p405
F187.5366630821824
sS'1E 2B'
p406
F33.13608305156178
sS'1E 2E'
p407
F33.13608305156178
sS'0E 6E'
p408
F149.03019828209315
sS'0E 6B'
p409
F148.44864431849825
sS'8E 6E'
p410
F51.088159097779204
sS'9E 11E'
p411
F34.17601498127012
sS'8E 6B'
p412
F50.44799302251776
sS'9E 8E'
p413
F59.033888572581766
sS'12B 13E'
p414
F189.52572384771415
sS'12B 13B'
p415
F192.37983262286096
sS'9E 8B'
p416
F58.05170109479997
sS'4E 2E'
p417
F114.33722053644648
sS'0E 11B'
p418
F185.9704277566732
sS'0E 11E'
p419
F185.129684275645
sS'2B 11B'
p420
F185.80904176062046
sS'13B 0B'
p421
F6.4031242374328485
sS'13B 0E'
p422
F5.830951894845301
sS'0E 9B'
p423
F172.07265907168403
sS'0E 9E'
p424
F171.04677722775136
sS'5B 7B'
p425
F5.385164807134504
sS'5B 7E'
p426
F5.0
sS'1B 10E'
p427
F179.51323071016242
sS'1B 10B'
p428
F179.2930561957155
sS'5E 13B'
p429
F123.01625908797584
sS'12E 3B'
p430
F183.65728953678914
sS'5E 13E'
p431
F120.03749414245534
sS'12E 3E'
p432
F183.3930205869351
sS'8B 5B'
p433
F62.369864518050704
sS'4B 7E'
p434
F7.0710678118654755
sS'4B 7B'
p435
F8.0
sS'8B 5E'
p436
F63.7808748764079
sS'6B 0E'
p437
F148.44864431849825
sS'9E 2B'
p438
F168.35973390332975
sS'9E 10E'
p439
F6.4031242374328485
sS'6B 0B'
p440
F149.03019828209315
sS'3E 13B'
p441
F27.784887978899608
sS'9E 2E'
p442
F168.35973390332975
sS'9B 13E'
p443
F174.14074767268
sS'10E 2B'
p444
F172.10461934532728
sS'3E 13E'
p445
F25.495097567963924
sS'4E 11E'
p446
F70.8801805866774
sS'1B 5B'
p447
F131.0953851209111
sS'1B 5E'
p448
F129.76902558006668
sS'4E 11B'
p449
F71.56814934033156
sS'9B 13B'
p450
F177.18069872308325
sS'5E 7B'
p451
F6.708203932499369
sS'3B 5E'
p452
F112.29425630903836
sS'9E 10B'
p453
F7.211102550927978
sS'3B 5B'
p454
F113.50770898930169
sS'5E 7E'
p455
F6.4031242374328485
sS'8B 2E'
p456
F171.09354166653983
sS'10E 11B'
p457
F37.107950630558946
sS'8B 2B'
p458
F171.09354166653983
sS'2B 9B'
p459
F169.29559947027565
sS'2B 9E'
p460
F168.35973390332975
sS'13E 4E'
p461
F117.15374513859982
sS'2E 12B'
p462
F187.5366630821824
sS'10B 8E'
p463
F65.73431371817918
sS'4B 10B'
p464
F61.68468205316454
sS'10B 8B'
p465
F64.76109943476871
sS'2E 12E'
p466
F187.7578227398262
sS'0B 1E'
p467
F47.0
sS'10E 2E'
p468
F172.10461934532728
sS'0B 1B'
p469
F48.0
sS'1E 12B'
p470
F200.17991907281808
sS'1E 12E'
p471
F200.55173896029922
sS'6E 0B'
p472
F149.61617559608987
sS'12B 1E'
p473
F200.17991907281808
sS'12B 1B'
p474
F200.55173896029922
sS'6E 0E'
p475
F149.03019828209315
sS'1E 7E'
p476
F135.56548233234005
sS'1E 7B'
p477
F136.0588108135596
sS'10B 7B'
p478
F54.08326913195984
sS'2E 4B'
p479
F115.31695452100702
sS'2E 4E'
p480
F114.33722053644648
sS'10B 7E'
p481
F55.362442142665635
sS'3E 1B'
p482
F29.410882339705484
sS'9E 3B'
p483
F162.9969324864735
sS'3E 1E'
p484
F28.460498941515414
sS'6B 13E'
p485
F148.94629904767692
sS'6B 13B'
p486
F150.88074761214565
sS'1E 9B'
p487
F177.2935419015594
sS'11B 1E'
p488
F198.69826370655582
sS'1E 9E'
p489
F176.57009939398006
sS'7B 4E'
p490
F9.0
sS'9B 0E'
p491
F172.07265907168403
sS'9B 0B'
p492
F172.04650534085255
sS'7B 4B'
p493
F8.0
sS'0B 8B'
p494
F168.86681142249356
sS'9E 3E'
p495
F162.88953311984167
sS'0B 8E'
p496
F169.1892431568863
sS'12B 6B'
p497
F88.45903006477066
sS'12B 6E'
p498
F89.1403387922662
sS'4B 8E'
p499
F63.655321851358195
sS'8B 6B'
p500
F51.088159097779204
sS'8B 6E'
p501
F51.73973328110612
sS'4B 8B'
p502
F62.93647591023825
sS'13B 5B'
p503
F124.03628501370073
sS'0E 2B'
p504
F15.297058540778355
sS'0E 2E'
p505
F15.297058540778355
sS'5B 8B'
p506
F62.369864518050704
sS'8E 2B'
p507
F171.49344010777787
sS'8E 2E'
p508
F171.49344010777787
sS'5B 8E'
p509
F63.12685640834652
sS'9E 4B'
p510
F56.293871780150276
sS'8B 12E'
p511
F36.76955262170047
sS'1B 0E'
p512
F49.0
sS'1B 0B'
p513
F48.0
sS'8B 12B'
p514
F37.48332962798263
sS'9E 4E'
p515
F57.271284253105414
sS'8E 10B'
p516
F65.73431371817918
sS'4E 6B'
p517
F78.23042886243178
sS'4E 6E'
p518
F79.22752047110903
sS'5E 0B'
p519
F118.15244390193544
sS'13E 11B'
p520
F187.6725872363889
sS'10E 6B'
p521
F109.27488274987991
sS'13E 11E'
p522
F186.81809334215998
sS'5E 0E'
p523
F118.10588469674151
sS'13B 4E'
p524
F120.10412149464314
sS'13B 4B'
p525
F121.10326172320876
sS'0E 5E'
p526
F118.10588469674151
sS'12B 10E'
p527
F36.68787265568828
sS'0E 5B'
p528
F119.15116449284078
sS'11E 7B'
p529
F62.297672508690084
sS'12E 2B'
p530
F187.7578227398262
sS'11E 7E'
p531
F62.93647591023825
sS'13B 10E'
p532
F180.3995565404749
sS'10B 13B'
p533
F180.46883387443938
sS'8E 10E'
p534
F64.76109943476871
sS'10B 13E'
p535
F177.40631330367023
sS'13B 10B'
p536
F180.46883387443938
sS'12B 10B'
p537
F37.64306044943742
sS'4B 3B'
p538
F111.12605455067681
sS'4B 3E'
p539
F110.86027241532469
sS'6E 7E'
p540
F78.02563681252464
sS'11B 2B'
p541
F185.80904176062046
sS'6B 4B'
p542
F78.16009211867653
sS'6B 4E'
p543
F78.23042886243178
sS'6E 7B'
p544
F79.05694150420949
sS'2E 3E'
p545
F8.48528137423857
sS'5B 13B'
p546
F124.03628501370073
sS'7E 10E'
p547
F55.02726596879042
sS'7E 10B'
p548
F55.362442142665635
sS'5B 13E'
p549
F121.06609764917675
sS'2E 3B'
p550
F9.219544457292887
sS'3B 9B'
p551
F163.88410539158457
sS'6B 12E'
p552
F87.78382538941898
sS'3B 9E'
p553
F162.9969324864735
sS'7E 4B'
p554
F7.0710678118654755
sS'7E 4E'
p555
F8.06225774829855
sS'0B 5B'
p556
F119.20570456148481
sS'0B 5E'
p557
F118.15244390193544
sS'12B 5B'
p558
F69.92138442565336
sS'10E 5E'
p559
F58.69412236331676
sS'12B 5E'
p560
F71.16881339463234
sS'1E 3B'
p561
F27.51363298439521
sS'1E 3E'
p562
F28.460498941515414
sS'8E 5E'
p563
F64.53681120105021
sS'10B 1E'
p564
F179.07819521091898
sS'5B 3E'
p565
F113.26517558367179
sS'5B 3B'
p566
F113.50770898930169
sS'8E 5B'
p567
F63.12685640834652
sS'4B 13E'
p568
F118.15244390193544
sS'7B 10B'
p569
F54.08326913195984
sS'7B 10E'
p570
F53.75872022286245
sS'4B 13B'
p571
F121.10326172320876
sS'4E 1E'
p572
F127.91012469699183
sS'6E 11E'
p573
F85.58621384311844
sS'12B 11E'
p574
F3.605551275463989
sS'6E 11B'
p575
F87.0
sS'4E 1B'
p576
F128.35108102388543
sS'5E 9E'
p577
F53.75872022286245
sS'10E 5B'
p578
F57.97413216254298
sS'5E 9B'
p579
F54.91812087098393
sS'7E 0E'
p580
F123.3288287465668
sS'9B 4B'
p581
F57.48912940721924
sS'7B 0B'
p582
F124.32618388738553
sS'7B 0E'
p583
F124.25779653607253
sS'9B 4E'
p584
F58.463663928973865
sS'3E 6B'
p585
F154.8967397978408
sS'3E 6E'
p586
F155.58920271021378
sS'5E 12E'
p587
F71.47027354082255
sS'7E 0B'
p588
F123.40583454602137
sS'5E 12B'
p589
F71.16881339463234
sS'12E 1B'
p590
F200.92784774639875
sS'12E 0E'
p591
F187.94946129212502
sS'6B 1E'
p592
F180.54639292990598
sS'6B 1B'
p593
F181.289823211343
sS'12E 0B'
p594
F188.09572031282372
sS'13E 3E'
p595
F25.495097567963924
sS'9E 13E'
p596
F173.1040149736568
sS'3E 12B'
p597
F183.13383084509536
sS'3E 12E'
p598
F183.3930205869351
sS'9E 13B'
p599
F176.13914953808538
sS'1B 4B'
p600
F129.24782396620841
sS'4E 12B'
p601
F73.24616030891995
sS'7E 13E'
p602
F125.19584657647394
sS'7E 13B'
p603
F128.14054783713078
sS'4E 12E'
p604
F73.49829930005184
sS'1B 4E'
p605
F128.35108102388543
sS'9E 0E'
p606
F171.04677722775136
sS'12E 7B'
p607
F64.8459713474939
sS'9E 0B'
p608
F171.0263137648707
sS'3B 4B'
p609
F111.12605455067681
sS'8E 11B'
p610
F36.124783736376884
sS'8E 11E'
p611
F34.713109915419565
sS'3B 4E'
p612
F110.16351483136329
sS'5E 4E'
p613
F4.242640687119285
sS'8B 3E'
p614
F168.15766411317682
sS'8B 3B'
p615
F168.6001186239203
sS'5E 4B'
p616
F3.605551275463989
sS'3B 11B'
p617
F181.7305698004604
sS'3B 11E'
p618
F181.0414317221337
sS'11E 12B'
p619
F3.605551275463989
sS'6B 12B'
p620
F88.45903006477066
sS'10E 6E'
p621
F110.14535850411491
sS'0B 2E'
p622
F14.317821063276353
sS'13E 6E'
p623
F149.5125412799876
sS'13E 6B'
p624
F148.94629904767692
sS'0B 2B'
p625
F14.317821063276353
sS'1E 11B'
p626
F198.69826370655582
sS'1E 11E'
p627
F198.15398053029367
sS'6E 3B'
p628
F156.28499608087785
sS'6E 3E'
p629
F155.58920271021378
sS'11E 12E'
p630
F3.1622776601683795
sS'6B 8E'
p631
F50.44799302251776
sS'2B 7E'
p632
F122.37646832622684
sS'12E 10B'
p633
F38.600518131237564
sS'8B 13B'
p634
F172.40939649566667
sS'2B 7B'
p635
F123.1665539016173
sS'6B 8B'
p636
F51.088159097779204
sS'9B 11E'
p637
F34.785054261852174
sS'13B 6B'
p638
F150.88074761214565
sS'10E 7E'
p639
F55.02726596879042
sS'2E 7B'
p640
F123.1665539016173
sS'2E 7E'
p641
F122.37646832622684
sS'9B 11B'
p642
F34.17601498127012
sS'11E 2E'
p643
F185.06485349736184
sS'7E 1B'
p644
F135.988970140964
sS'0B 13B'
p645
F6.4031242374328485
sS'0B 13E'
p646
F3.605551275463989
sS'8B 13E'
p647
F169.83815825661793
sS'3E 2E'
p648
F8.48528137423857
sS'6E 12E'
p649
F88.45903006477066
sS'6E 12B'
p650
F89.1403387922662
sS'3E 2B'
p651
F8.48528137423857
sS'13B 6E'
p652
F151.43315356948756
sS'9B 3B'
p653
F163.88410539158457
sS'7B 3B'
p654
F118.84864324004712
sS'7B 3E'
p655
F118.6001686339442
sS'9B 3E'
p656
F163.783393541592
sS'11B 0E'
p657
F185.9704277566732
sS'7E 8E'
p658
F58.25804665451803
sS'7E 8B'
p659
F57.48912940721924
sS'0B 9E'
p660
F171.0263137648707
sS'0B 9B'
p661
F172.04650534085255
sS'0E 1B'
p662
F49.0
sS'0E 1E'
p663
F48.0
sS'8E 1B'
p664
F190.2866259094422
sS'8E 1E'
p665
F189.74720024284943
sS'8B 11E'
p666
F33.97057550292606
sS'8B 11B'
p667
F35.38361202590826
sS'11E 8B'
p668
F33.97057550292606
sS'2B 10B'
p669
F172.07265907168403
sS'4E 5B'
p670
F4.47213595499958
sS'4E 5E'
p671
F4.242640687119285
sS'11B 7E'
p672
F63.60031446463138
sS'2B 10E'
p673
F172.10461934532728
sS'11B 5E'
p674
F69.57010852370435
sS'0E 12E'
p675
F187.94946129212502
sS'0E 12B'
p676
F187.8084130170957
sS'0E 8B'
p677
F168.5496959356498
sS'13B 1E'
p678
F51.24451190127583
sS'13B 1B'
p679
F52.23983154643591
sS'0E 8E'
p680
F168.86681142249356
sS'1B 11E'
p681
F198.53966858036205
sS'5B 6E'
p682
F81.02468759581859
sS'9B 8E'
p683
F60.207972893961475
sS'9B 8B'
p684
F59.22837157984339
sS'5B 6B'
p685
F80.02499609497022
sS'1B 11B'
p686
F199.07787421006887
sS'12E 1E'
p687
F200.55173896029922
sS'11E 6B'
p688
F84.8999411071645
sS'11E 6E'
p689
F85.58621384311844
sS'13B 7E'
p690
F128.14054783713078
sS'13E 5E'
p691
F120.03749414245534
sS'13E 5B'
p692
F121.06609764917675
sS'13E 3B'
p693
F26.40075756488817
sS'11B 4B'
p694
F70.60453243241541
sS'10E 3B'
p695
F166.50825805346713
sS'6B 5B'
p696
F80.02499609497022
sS'4B 0E'
p697
F116.27553482998907
sS'12B 0B'
p698
F187.94946129212502
sS'4B 0B'
p699
F116.3486140871476
sS'6B 5E'
p700
F81.05553651663777
sS'2B 4E'
p701
F114.33722053644648
sS'2B 4B'
p702
F115.31695452100702
sS'11B 2E'
p703
F185.80904176062046
sS'10E 3E'
p704
F166.43316977093238
sS'5B 10B'
p705
F58.240879114244144
sS'11E 9B'
p706
F34.785054261852174
sS'11B 0B'
p707
F186.11824198610947
sS'2E 13B'
p708
F19.697715603592208
sS'2E 13E'
p709
F17.72004514666935
sS'13E 2B'
p710
F17.72004514666935
sS'0B 6B'
p711
F149.03019828209315
sS'0B 6E'
p712
F149.61617559608987
sS'13E 2E'
p713
F17.72004514666935
sS'11E 9E'
p714
F34.17601498127012
sS'11E 13B'
p715
F189.6549498431296
sS'11E 13E'
p716
F186.81809334215998
sS'4B 5E'
p717
F3.605551275463989
sS'12B 0E'
p718
F187.8084130170957
sS'5B 10E'
p719
F57.97413216254298
sS'10B 2B'
p720
F172.07265907168403
sS'1E 4B'
p721
F128.80993750483694
sS'2B 3B'
p722
F9.219544457292887
sS'2B 3E'
p723
F8.48528137423857
sS'1E 4E'
p724
F127.91012469699183
sS'3B 12B'
p725
F183.3930205869351
sS'10B 6B'
p726
F110.14535850411491
sS'10B 6E'
p727
F111.01801655587259
sS'3B 12E'
p728
F183.65728953678914
s.