(dp0
S'5B 2B'
p1
F155.58920271021378
sS'8E 4E'
p2
F53.75872022286245
sS'8E 4B'
p3
F52.952809179494906
sS'5B 2E'
p4
F154.8967397978408
sS'10B 4B'
p5
F68.30812543175226
sS'4B 12B'
p6
F119.20570456148481
sS'10E 11E'
p7
F3.1622776601683795
sS'4B 12E'
p8
F124.03628501370073
sS'7B 11E'
p9
F36.76955262170047
sS'4E 0E'
p10
F129.3560976529518
sS'4E 0B'
p11
F129.76902558006668
sS'7B 11B'
p12
F37.48332962798263
sS'10B 4E'
p13
F69.57010852370435
sS'9B 7E'
p14
F65.73431371817918
sS'9B 7B'
p15
F64.76109943476871
sS'11E 4B'
p16
F70.21395872616783
sS'8B 7B'
p17
F59.22837157984339
sS'3B 8E'
p18
F56.293871780150276
sS'4B 9B'
p19
F58.240879114244144
sS'5E 11E'
p20
F88.45903006477066
sS'5E 11B'
p21
F89.1403387922662
sS'4B 9E'
p22
F57.97413216254298
sS'3B 8B'
p23
F57.48912940721924
sS'8B 7E'
p24
F60.207972893961475
sS'12E 5E'
p25
F151.43315356948756
sS'12E 5B'
p26
F150.88074761214565
sS'10E 0B'
p27
F198.53966858036205
sS'2E 9B'
p28
F166.3640586184408
sS'8E 9B'
p29
F7.211102550927978
sS'12B 11B'
p30
F187.94946129212502
sS'2E 9E'
p31
F166.43316977093238
sS'10E 0E'
p32
F198.15398053029367
sS'1B 3B'
p33
F115.31695452100702
sS'1B 3E'
p34
F114.33722053644648
sS'9E 5E'
p35
F110.14535850411491
sS'9E 5B'
p36
F109.27488274987991
sS'4E 9E'
p37
F58.69412236331676
sS'3B 7B'
p38
F62.93647591023825
sS'3B 7E'
p39
F63.655321851358195
sS'4E 9B'
p40
F58.9406481131655
sS'5E 1E'
p41
F155.97435686676192
sS'5E 1B'
p42
F155.97435686676192
sS'0E 4E'
p43
F129.3560976529518
sS'0E 4B'
p44
F130.6789960169575
sS'9E 1B'
p45
F172.10461934532728
sS'1E 0E'
p46
F33.13608305156178
sS'1E 0B'
p47
F34.132096331752024
sS'11B 3B'
p48
F72.27724399837061
sS'8E 9E'
p49
F6.4031242374328485
sS'9E 1E'
p50
F172.10461934532728
sS'0B 3E'
p51
F128.35108102388543
sS'0B 3B'
p52
F129.24782396620841
sS'1E 10B'
p53
F185.80904176062046
sS'1E 10E'
p54
F185.06485349736184
sS'6E 2B'
p55
F118.1397477566293
sS'11B 3E'
p56
F73.24616030891995
sS'6E 2E'
p57
F117.881296226331
sS'12E 8E'
p58
F176.13914953808538
sS'2B 0B'
p59
F28.460498941515414
sS'2B 0E'
p60
F27.51363298439521
sS'12E 8B'
p61
F177.18069872308325
sS'2E 6B'
p62
F118.6001686339442
sS'9B 12B'
p63
F175.231275747225
sS'9B 12E'
p64
F180.46883387443938
sS'2E 6E'
p65
F117.881296226331
sS'11E 1B'
p66
F187.7578227398262
sS'11E 1E'
p67
F187.7578227398262
sS'3E 7E'
p68
F64.35060217278468
sS'3E 7B'
p69
F63.63961030678928
sS'6E 4E'
p70
F6.4031242374328485
sS'8E 12E'
p71
F176.13914953808538
sS'7E 5B'
p72
F50.44799302251776
sS'7B 6E'
p73
F57.48912940721924
sS'7B 6B'
p74
F57.62811813689564
sS'7E 5E'
p75
F51.088159097779204
sS'2B 6E'
p76
F118.1397477566293
sS'3E 8B'
p77
F58.463663928973865
sS'3E 8E'
p78
F57.271284253105414
sS'12B 4B'
p79
F119.20570456148481
sS'12B 4E'
p80
F118.15244390193544
sS'8E 12B'
p81
F171.0263137648707
sS'12E 6E'
p82
F128.14054783713078
sS'12E 6B'
p83
F129.0968628588627
sS'8E 0B'
p84
F176.8219443394965
sS'12E 4B'
p85
F124.03628501370073
sS'8E 0E'
p86
F176.57009939398006
sS'8B 10E'
p87
F34.785054261852174
sS'8B 10B'
p88
F34.17601498127012
sS'9E 6E'
p89
F55.02726596879042
sS'9E 6B'
p90
F53.75872022286245
sS'3B 2E'
p91
F110.86027241532469
sS'3B 2B'
p92
F111.12605455067681
sS'5E 2E'
p93
F155.58920271021378
sS'8B 9E'
p94
F5.0
sS'8B 9B'
p95
F5.830951894845301
sS'5E 2B'
p96
F156.28499608087785
sS'10B 3E'
p97
F71.56814934033156
sS'10B 3B'
p98
F70.60453243241541
sS'1B 12B'
p99
F14.317821063276353
sS'5B 1B'
p100
F155.32224567009067
sS'5B 1E'
p101
F155.32224567009067
sS'1B 12E'
p102
F19.697715603592208
sS'0B 12E'
p103
F52.23983154643591
sS'0B 12B'
p104
F48.0
sS'6B 2B'
p105
F118.84864324004712
sS'6E 9E'
p106
F55.02726596879042
sS'6E 9B'
p107
F55.362442142665635
sS'6B 2E'
p108
F118.6001686339442
sS'9E 12B'
p109
F175.18276170902203
sS'9E 12E'
p110
F180.3995565404749
sS'7E 12E'
p111
F172.70205557549104
sS'3E 11E'
p112
F73.49829930005184
sS'6B 11B'
p113
F64.5600495662759
sS'5B 11B'
p114
F88.45903006477066
sS'5B 11E'
p115
F87.78382538941898
sS'6B 11E'
p116
F64.8459713474939
sS'3E 11B'
p117
F73.24616030891995
sS'7E 12B'
p118
F169.1892431568863
sS'1B 7E'
p119
F171.49344010777787
sS'1B 7B'
p120
F171.09354166653983
sS'8B 0B'
p121
F177.53872816937718
sS'8B 0E'
p122
F177.2935419015594
sS'10E 7B'
p123
F33.97057550292606
sS'11B 10E'
p124
F3.605551275463989
sS'12E 10E'
p125
F189.6549498431296
sS'11B 8B'
p126
F34.0147027033899
sS'7E 2B'
p127
F169.04733065032408
sS'7B 9E'
p128
F63.788713735268246
sS'7B 9B'
p129
F64.76109943476871
sS'7E 2E'
p130
F168.6001186239203
sS'11B 8E'
p131
F33.54101966249684
sS'0B 7B'
p132
F189.74720024284943
sS'2E 10E'
p133
F180.76780686836912
sS'2E 10B'
p134
F181.46349495146399
sS'0B 7E'
p135
F190.2866259094422
sS'10B 2E'
p136
F181.46349495146399
sS'4B 5B'
p137
F80.02499609497022
sS'11E 10E'
p138
F3.1622776601683795
sS'12B 3B'
p139
F116.3486140871476
sS'12B 3E'
p140
F115.35163631262454
sS'11E 10B'
p141
F2.0
sS'11B 4E'
p142
F71.16881339463234
sS'1E 5E'
p143
F155.97435686676192
sS'11B 1B'
p144
F187.5366630821824
sS'11B 1E'
p145
F187.5366630821824
sS'1E 5B'
p146
F155.32224567009067
sS'4B 11B'
p147
F69.92138442565336
sS'4B 11E'
p148
F70.21395872616783
sS'7B 12E'
p149
F172.40939649566667
sS'7B 12B'
p150
F168.86681142249356
sS'7B 2B'
p151
F168.6001186239203
sS'7B 2E'
p152
F168.15766411317682
sS'9B 2E'
p153
F166.3640586184408
sS'7E 9E'
p154
F64.76109943476871
sS'7E 9B'
p155
F65.73431371817918
sS'9B 2B'
p156
F166.43316977093238
sS'3B 0E'
p157
F128.80993750483694
sS'3E 4E'
p158
F4.242640687119285
sS'3E 4B'
p159
F4.47213595499958
sS'5E 10E'
p160
F85.58621384311844
sS'5E 10B'
p161
F87.0
sS'4B 6E'
p162
F5.0
sS'8B 4E'
p163
F54.91812087098393
sS'8B 4B'
p164
F54.12947441089743
sS'4B 6B'
p165
F5.385164807134504
sS'9E 11B'
p166
F36.68787265568828
sS'10E 1B'
p167
F185.06485349736184
sS'10E 1E'
p168
F185.06485349736184
sS'3B 0B'
p169
F129.24782396620841
sS'7E 3E'
p170
F64.35060217278468
sS'2E 8E'
p171
F162.88953311984167
sS'2E 8B'
p172
F163.783393541592
sS'1B 2E'
p173
F8.48528137423857
sS'4E 10E'
p174
F68.9492567037528
sS'4E 10B'
p175
F69.57010852370435
sS'1B 2B'
p176
F9.219544457292887
sS'3B 6B'
p177
F8.0
sS'10E 12B'
p178
F185.28356645962967
sS'4E 8E'
p179
F53.75872022286245
sS'4E 8B'
p180
F54.91812087098393
sS'10E 12E'
p181
F189.6549498431296
sS'3B 6E'
p182
F7.0710678118654755
sS'5E 6B'
p183
F79.05694150420949
sS'5E 6E'
p184
F78.02563681252464
sS'7E 3B'
p185
F63.655321851358195
sS'0E 7B'
p186
F189.21152184790438
sS'5B 10B'
p187
F86.31338250816034
sS'0E 7E'
p188
F189.74720024284943
sS'10B 5E'
p189
F87.0
sS'10B 5B'
p190
F86.31338250816034
sS'12E 4E'
p191
F123.01625908797584
sS'11E 5E'
p192
F88.45903006477066
sS'11E 5B'
p193
F87.78382538941898
sS'10B 11B'
p194
F2.23606797749979
sS'10E 8B'
p195
F34.785054261852174
sS'11B 7B'
p196
F37.48332962798263
sS'10B 11E'
p197
F2.0
sS'6E 5B'
p198
F77.02596964660685
sS'4B 1B'
p199
F117.88553770501282
sS'4B 1E'
p200
F117.88553770501282
sS'6E 5E'
p201
F78.02563681252464
sS'2B 5E'
p202
F156.28499608087785
sS'2B 5B'
p203
F155.58920271021378
sS'2E 1B'
p204
F8.48528137423857
sS'2E 1E'
p205
F8.48528137423857
sS'12B 9E'
p206
F175.18276170902203
sS'12B 9B'
p207
F175.231275747225
sS'0B 11E'
p208
F200.92784774639875
sS'0B 11B'
p209
F200.55173896029922
sS'1B 9E'
p210
F172.10461934532728
sS'3E 0B'
p211
F128.35108102388543
sS'3E 0E'
p212
F127.91012469699183
sS'7B 5B'
p213
F51.088159097779204
sS'1E 8E'
p214
F168.35973390332975
sS'1E 8B'
p215
F169.29559947027565
sS'7B 5E'
p216
F51.73973328110612
sS'9B 1E'
p217
F172.07265907168403
sS'7E 6E'
p218
F58.25804665451803
sS'7E 6B'
p219
F58.412327466040935
sS'9B 1B'
p220
F172.07265907168403
sS'3E 9B'
p221
F62.6418390534633
sS'1B 9B'
p222
F172.07265907168403
sS'3E 9E'
p223
F62.36184731067546
sS'12B 7E'
p224
F169.1892431568863
sS'12B 7B'
p225
F168.86681142249356
sS'8E 7B'
p226
F58.05170109479997
sS'8E 7E'
p227
F59.033888572581766
sS'4E 3B'
p228
F3.605551275463989
sS'2B 12B'
p229
F22.847319317591726
sS'2B 12E'
p230
F28.653097563788805
sS'4E 3E'
p231
F4.242640687119285
sS'0E 10B'
p232
F198.69826370655582
sS'0E 10E'
p233
F198.15398053029367
sS'12B 8E'
p234
F171.0263137648707
sS'11B 12B'
p235
F187.94946129212502
sS'10E 9B'
p236
F38.8329756778952
sS'11B 12E'
p237
F192.37983262286096
sS'10E 9E'
p238
F37.8549864614954
sS'9B 6B'
p239
F54.08326913195984
sS'5B 4E'
p240
F81.05553651663777
sS'5B 4B'
p241
F80.02499609497022
sS'9B 6E'
p242
F55.362442142665635
sS'1B 6B'
p243
F123.1665539016173
sS'11E 0E'
p244
F200.55173896029922
sS'11E 0B'
p245
F200.92784774639875
sS'10B 12B'
p246
F186.11824198610947
sS'12B 8B'
p247
F172.04650534085255
sS'5B 10E'
p248
F84.8999411071645
sS'10B 12E'
p249
F190.51771571168914
sS'6B 10B'
p250
F62.93647591023825
sS'6E 8B'
p251
F50.96076922496363
sS'4B 2B'
p252
F113.50770898930169
sS'4B 2E'
p253
F113.26517558367179
sS'6E 8E'
p254
F49.72926703662542
sS'6B 3E'
p255
F9.0
sS'6B 3B'
p256
F8.0
sS'3E 10B'
p257
F71.56814934033156
sS'7E 11B'
p258
F38.2099463490856
sS'7E 11E'
p259
F37.48332962798263
sS'3E 10E'
p260
F70.8801805866774
sS'5B 12E'
p261
F150.88074761214565
sS'6B 10E'
p262
F62.297672508690084
sS'1B 6E'
p263
F122.37646832622684
sS'5B 12B'
p264
F149.03019828209315
sS'2B 8B'
p265
F163.88410539158457
sS'2B 8E'
p266
F162.9969324864735
sS'10B 9B'
p267
F38.07886552931954
sS'10B 9E'
p268
F37.107950630558946
sS'10E 8E'
p269
F34.17601498127012
sS'2B 1B'
p270
F9.219544457292887
sS'12E 9B'
p271
F180.46883387443938
sS'6E 1E'
p272
F122.37646832622684
sS'6E 1B'
p273
F122.37646832622684
sS'12E 9E'
p274
F180.3995565404749
sS'2B 1E'
p275
F9.219544457292887
sS'1E 6E'
p276
F122.37646832622684
sS'11B 6B'
p277
F64.5600495662759
sS'11B 6E'
p278
F65.25335240430181
sS'1E 6B'
p279
F123.1665539016173
sS'2E 5E'
p280
F155.58920271021378
sS'2E 5B'
p281
F154.8967397978408
sS'1B 8E'
p282
F168.35973390332975
sS'4B 10E'
p283
F67.67569726275453
sS'6E 10B'
p284
F63.60031446463138
sS'6E 10E'
p285
F62.93647591023825
sS'5E 8B'
p286
F105.19030373565806
sS'5E 8E'
p287
F103.83159442096611
sS'2B 11E'
p288
F183.65728953678914
sS'7B 1E'
p289
F171.09354166653983
sS'9B 5B'
p290
F110.14535850411491
sS'9B 5E'
p291
F111.01801655587259
sS'7B 1B'
p292
F171.09354166653983
sS'4E 2B'
p293
F112.29425630903836
sS'3E 5E'
p294
F79.22752047110903
sS'3E 5B'
p295
F78.23042886243178
sS'12E 7E'
p296
F172.70205557549104
sS'8B 1E'
p297
F169.29559947027565
sS'10E 4E'
p298
F68.9492567037528
sS'8B 1B'
p299
F169.29559947027565
sS'11B 2B'
p300
F183.3930205869351
sS'10E 4B'
p301
F67.67569726275453
sS'0E 3E'
p302
F127.91012469699183
sS'0E 3B'
p303
F128.80993750483694
sS'8E 3E'
p304
F57.271284253105414
sS'5B 9B'
p305
F110.14535850411491
sS'5B 9E'
p306
F109.27488274987991
sS'8E 3B'
p307
F56.293871780150276
sS'9E 7E'
p308
F64.76109943476871
sS'9E 7B'
p309
F63.788713735268246
sS'3B 1B'
p310
F115.31695452100702
sS'4E 7E'
p311
F64.53681120105021
sS'4E 7B'
p312
F63.7808748764079
sS'3B 1E'
p313
F115.31695452100702
sS'5E 3E'
p314
F79.22752047110903
sS'5E 3B'
p315
F79.1580697086532
sS'5B 0B'
p316
F181.289823211343
sS'5B 0E'
p317
F180.54639292990598
sS'3B 10E'
p318
F69.92138442565336
sS'6B 9E'
p319
F53.75872022286245
sS'3B 10B'
p320
F70.60453243241541
sS'6B 9B'
p321
F54.08326913195984
sS'11E 4E'
p322
F71.47027354082255
sS'1B 8B'
p323
F169.29559947027565
sS'2B 6B'
p324
F118.84864324004712
sS'6B 7B'
p325
F57.62811813689564
sS'6B 7E'
p326
F58.412327466040935
sS'6E 4B'
p327
F5.0
sS'12E 11B'
p328
F192.37983262286096
sS'10B 1B'
p329
F185.80904176062046
sS'12E 11E'
p330
F192.50194804209124
sS'2E 0E'
p331
F28.460498941515414
sS'9B 10E'
p332
F38.8329756778952
sS'9B 10B'
p333
F38.07886552931954
sS'2E 0B'
p334
F29.410882339705484
sS'0B 10E'
p335
F198.53966858036205
sS'11E 3E'
p336
F73.49829930005184
sS'11E 3B'
p337
F72.53275122315436
sS'0B 10B'
p338
F199.07787421006887
sS'11B 5B'
p339
F88.45903006477066
sS'7B 8B'
p340
F59.22837157984339
sS'11B 9B'
p341
F37.64306044943742
sS'11B 9E'
p342
F36.68787265568828
sS'7B 8E'
p343
F58.05170109479997
sS'2E 11B'
p344
F183.13383084509536
sS'12E 2E'
p345
F27.784887978899608
sS'2E 11E'
p346
F183.3930205869351
sS'0B 4E'
p347
F129.76902558006668
sS'0B 4B'
p348
F131.0953851209111
sS'11B 10B'
p349
F2.23606797749979
sS'12B 2E'
p350
F21.93171219946131
sS'12B 2B'
p351
F22.847319317591726
sS'1E 2B'
p352
F9.219544457292887
sS'1E 2E'
p353
F8.48528137423857
sS'0E 6E'
p354
F135.56548233234005
sS'0E 6B'
p355
F136.0588108135596
sS'8E 6E'
p356
F49.72926703662542
sS'9E 11E'
p357
F37.64306044943742
sS'8E 6B'
p358
F48.507731342539614
sS'9E 8E'
p359
F6.4031242374328485
sS'9E 8B'
p360
F5.0
sS'4E 2E'
p361
F112.05802068571441
sS'0E 11B'
p362
F200.17991907281808
sS'0E 11E'
p363
F200.55173896029922
sS'2B 11B'
p364
F183.3930205869351
sS'0E 9B'
p365
F179.07819521091898
sS'0E 9E'
p366
F179.2930561957155
sS'5B 7B'
p367
F51.088159097779204
sS'5B 7E'
p368
F50.44799302251776
sS'1B 10E'
p369
F185.06485349736184
sS'1B 10B'
p370
F185.80904176062046
sS'12E 3B'
p371
F121.10326172320876
sS'12E 3E'
p372
F120.10412149464314
sS'8B 5B'
p373
F104.31682510506155
sS'4B 7E'
p374
F63.12685640834652
sS'4B 7B'
p375
F62.369864518050704
sS'8B 5E'
p376
F105.19030373565806
sS'6B 0E'
p377
F136.0588108135596
sS'9E 2B'
p378
F166.50825805346713
sS'9E 10E'
p379
F37.8549864614954
sS'6B 0B'
p380
F136.4734406395618
sS'9E 2E'
p381
F166.43316977093238
sS'10B 0E'
p382
F198.69826370655582
sS'10E 2B'
p383
F181.0414317221337
sS'4E 11E'
p384
F71.47027354082255
sS'1B 5B'
p385
F155.32224567009067
sS'1B 5E'
p386
F155.97435686676192
sS'4E 11B'
p387
F71.16881339463234
sS'10B 0B'
p388
F199.07787421006887
sS'5E 7B'
p389
F51.73973328110612
sS'3B 5E'
p390
F79.1580697086532
sS'9E 10B'
p391
F37.107950630558946
sS'3B 5B'
p392
F78.16009211867653
sS'5E 7E'
p393
F51.088159097779204
sS'8B 2E'
p394
F163.783393541592
sS'10E 11B'
p395
F3.605551275463989
sS'8B 2B'
p396
F163.88410539158457
sS'2B 9B'
p397
F166.43316977093238
sS'2B 9E'
p398
F166.50825805346713
sS'7E 0E'
p399
F189.74720024284943
sS'10B 8E'
p400
F33.61547262794322
sS'4B 10B'
p401
F68.30812543175226
sS'10B 8B'
p402
F34.17601498127012
sS'7E 0B'
p403
F190.2866259094422
sS'0B 1E'
p404
F34.132096331752024
sS'10E 2E'
p405
F180.76780686836912
sS'0B 1B'
p406
F34.132096331752024
sS'1E 12B'
p407
F14.317821063276353
sS'1E 12E'
p408
F19.697715603592208
sS'6E 0B'
p409
F135.988970140964
sS'12B 1E'
p410
F14.317821063276353
sS'12B 1B'
p411
F14.317821063276353
sS'6E 0E'
p412
F135.56548233234005
sS'1E 7E'
p413
F171.49344010777787
sS'1E 7B'
p414
F171.09354166653983
sS'10B 7B'
p415
F35.38361202590826
sS'2E 4B'
p416
F113.26517558367179
sS'2E 4E'
p417
F112.05802068571441
sS'10B 7E'
p418
F36.124783736376884
sS'3E 1B'
p419
F114.33722053644648
sS'9E 3B'
p420
F61.40032573203501
sS'3E 1E'
p421
F114.33722053644648
sS'1E 9B'
p422
F172.07265907168403
sS'1E 9E'
p423
F172.10461934532728
sS'7B 4E'
p424
F63.7808748764079
sS'9B 0E'
p425
F179.07819521091898
sS'9B 0B'
p426
F179.2930561957155
sS'7B 4B'
p427
F62.369864518050704
sS'0B 8B'
p428
F177.53872816937718
sS'9E 3E'
p429
F62.36184731067546
sS'0B 8E'
p430
F176.8219443394965
sS'12B 6B'
p431
F124.32618388738553
sS'12B 6E'
p432
F123.40583454602137
sS'4B 8E'
p433
F52.952809179494906
sS'8B 6B'
p434
F49.72926703662542
sS'8B 6E'
p435
F50.96076922496363
sS'4B 8B'
p436
F54.12947441089743
sS'0E 2B'
p437
F27.51363298439521
sS'0E 2E'
p438
F28.460498941515414
sS'5B 8B'
p439
F104.31682510506155
sS'8E 2B'
p440
F162.9969324864735
sS'8E 2E'
p441
F162.88953311984167
sS'5B 8E'
p442
F102.95630140987001
sS'9E 4B'
p443
F57.97413216254298
sS'8B 12E'
p444
F177.18069872308325
sS'1B 0E'
p445
F33.13608305156178
sS'1B 0B'
p446
F34.132096331752024
sS'8B 12B'
p447
F172.04650534085255
sS'9E 4E'
p448
F58.69412236331676
sS'8E 10B'
p449
F33.61547262794322
sS'4E 6B'
p450
F6.708203932499369
sS'4E 6E'
p451
F6.4031242374328485
sS'5E 0B'
p452
F182.03571078225283
sS'10E 6B'
p453
F62.297672508690084
sS'5E 0E'
p454
F181.289823211343
sS'0E 5E'
p455
F181.289823211343
sS'12B 10E'
p456
F185.28356645962967
sS'0E 5B'
p457
F180.54639292990598
sS'11E 7B'
p458
F36.76955262170047
sS'12E 2B'
p459
F28.653097563788805
sS'11E 7E'
p460
F37.48332962798263
sS'8E 10E'
p461
F34.17601498127012
sS'12B 10B'
p462
F186.11824198610947
sS'4B 3B'
p463
F3.605551275463989
sS'4B 3E'
p464
F4.47213595499958
sS'6E 7E'
p465
F58.25804665451803
sS'6B 4B'
p466
F5.385164807134504
sS'6B 4E'
p467
F6.708203932499369
sS'6E 7B'
p468
F57.48912940721924
sS'2E 3E'
p469
F109.89540481748998
sS'7E 10E'
p470
F34.713109915419565
sS'7E 10B'
p471
F36.124783736376884
sS'2E 3B'
p472
F110.86027241532469
sS'3B 9B'
p473
F61.68468205316454
sS'3B 9E'
p474
F61.40032573203501
sS'7E 4B'
p475
F63.12685640834652
sS'7E 4E'
p476
F64.53681120105021
sS'0B 5B'
p477
F181.289823211343
sS'0B 5E'
p478
F182.03571078225283
sS'12B 5B'
p479
F149.03019828209315
sS'10E 5E'
p480
F85.58621384311844
sS'12B 5E'
p481
F149.61617559608987
sS'1E 3B'
p482
F115.31695452100702
sS'1E 3E'
p483
F114.33722053644648
sS'8E 5E'
p484
F103.83159442096611
sS'10B 1E'
p485
F185.80904176062046
sS'5B 3E'
p486
F78.23042886243178
sS'5B 3B'
p487
F78.16009211867653
sS'8E 5B'
p488
F102.95630140987001
sS'7B 10B'
p489
F35.38361202590826
sS'7B 10E'
p490
F33.97057550292606
sS'4E 1E'
p491
F116.72617529928752
sS'6E 11E'
p492
F65.52098900352466
sS'12B 11E'
p493
F188.09572031282372
sS'6E 11B'
p494
F65.25335240430181
sS'4E 1B'
p495
F116.72617529928752
sS'5E 9E'
p496
F110.14535850411491
sS'10E 5B'
p497
F84.8999411071645
sS'5E 9B'
p498
F111.01801655587259
sS'2E 12B'
p499
F21.93171219946131
sS'9B 4B'
p500
F58.240879114244144
sS'7B 0B'
p501
F189.74720024284943
sS'7B 0E'
p502
F189.21152184790438
sS'9B 4E'
p503
F58.9406481131655
sS'3E 6B'
p504
F9.0
sS'3E 6E'
p505
F8.06225774829855
sS'5E 12E'
p506
F151.43315356948756
sS'2E 12E'
p507
F27.784887978899608
sS'5E 12B'
p508
F149.61617559608987
sS'12E 1B'
p509
F19.697715603592208
sS'12E 0E'
p510
F51.24451190127583
sS'6B 1E'
p511
F123.1665539016173
sS'6B 1B'
p512
F123.1665539016173
sS'12E 0B'
p513
F52.23983154643591
sS'10E 3B'
p514
F69.92138442565336
sS'3E 12B'
p515
F115.35163631262454
sS'3E 12E'
p516
F120.10412149464314
sS'10E 3E'
p517
F70.8801805866774
sS'1B 4B'
p518
F117.88553770501282
sS'4E 12B'
p519
F118.15244390193544
sS'4E 12E'
p520
F123.01625908797584
sS'1B 4E'
p521
F116.72617529928752
sS'9E 0E'
p522
F179.2930561957155
sS'12E 7B'
p523
F172.40939649566667
sS'9E 0B'
p524
F179.51323071016242
sS'3B 4B'
p525
F3.605551275463989
sS'8E 11B'
p526
F33.54101966249684
sS'8E 11E'
p527
F34.438350715445125
sS'3B 4E'
p528
F3.605551275463989
sS'5E 4E'
p529
F82.05485969764375
sS'8B 3E'
p530
F58.463663928973865
sS'8B 3B'
p531
F57.48912940721924
sS'5E 4B'
p532
F81.02468759581859
sS'3B 11B'
p533
F72.27724399837061
sS'3B 11E'
p534
F72.53275122315436
sS'11E 12B'
p535
F188.09572031282372
sS'10E 6E'
p536
F62.93647591023825
sS'0B 2E'
p537
F29.410882339705484
sS'0B 2B'
p538
F28.460498941515414
sS'1E 11B'
p539
F187.5366630821824
sS'1E 11E'
p540
F187.7578227398262
sS'6E 3B'
p541
F7.0710678118654755
sS'6E 3E'
p542
F8.06225774829855
sS'11E 12E'
p543
F192.50194804209124
sS'6B 8E'
p544
F48.507731342539614
sS'2B 7E'
p545
F169.04733065032408
sS'12E 10B'
p546
F190.51771571168914
sS'12E 1E'
p547
F19.697715603592208
sS'2B 7B'
p548
F168.6001186239203
sS'6B 8B'
p549
F49.72926703662542
sS'9B 11E'
p550
F38.600518131237564
sS'10E 7E'
p551
F34.713109915419565
sS'2E 7B'
p552
F168.15766411317682
sS'2E 7E'
p553
F168.6001186239203
sS'9B 11B'
p554
F37.64306044943742
sS'11E 2E'
p555
F183.3930205869351
sS'11E 8E'
p556
F34.438350715445125
sS'11E 2B'
p557
F183.65728953678914
sS'3E 2E'
p558
F109.89540481748998
sS'6E 12E'
p559
F128.14054783713078
sS'6E 12B'
p560
F123.40583454602137
sS'3E 2B'
p561
F110.16351483136329
sS'9B 3B'
p562
F61.68468205316454
sS'7B 3B'
p563
F62.93647591023825
sS'7B 3E'
p564
F63.63961030678928
sS'9B 3E'
p565
F62.6418390534633
sS'11B 0E'
p566
F200.17991907281808
sS'7E 8E'
p567
F59.033888572581766
sS'7E 8B'
p568
F60.207972893961475
sS'0B 9E'
p569
F179.51323071016242
sS'0B 9B'
p570
F179.2930561957155
sS'0E 1B'
p571
F33.13608305156178
sS'0E 1E'
p572
F33.13608305156178
sS'8E 1B'
p573
F168.35973390332975
sS'8E 1E'
p574
F168.35973390332975
sS'8B 11E'
p575
F34.92849839314596
sS'8B 11B'
p576
F34.0147027033899
sS'11E 8B'
p577
F34.92849839314596
sS'2B 10B'
p578
F181.7305698004604
sS'4E 5B'
p579
F81.05553651663777
sS'4E 5E'
p580
F82.05485969764375
sS'11B 7E'
p581
F38.2099463490856
sS'2B 10E'
p582
F181.0414317221337
sS'11B 5E'
p583
F89.1403387922662
sS'0E 12E'
p584
F51.24451190127583
sS'0E 12B'
p585
F47.0
sS'0E 8B'
p586
F177.2935419015594
sS'0E 8E'
p587
F176.57009939398006
sS'1B 11E'
p588
F187.7578227398262
sS'5B 6E'
p589
F77.02596964660685
sS'9B 8E'
p590
F7.211102550927978
sS'9B 8B'
p591
F5.830951894845301
sS'5B 6B'
p592
F78.05767098754612
sS'1B 11B'
p593
F187.5366630821824
sS'11E 6B'
p594
F64.8459713474939
sS'11E 6E'
p595
F65.52098900352466
sS'11B 4B'
p596
F69.92138442565336
sS'6B 5B'
p597
F78.05767098754612
sS'4B 0E'
p598
F130.6789960169575
sS'12B 0B'
p599
F48.0
sS'4B 0B'
p600
F131.0953851209111
sS'6B 5E'
p601
F79.05694150420949
sS'2B 4E'
p602
F112.29425630903836
sS'2B 4B'
p603
F113.50770898930169
sS'11B 2E'
p604
F183.13383084509536
sS'6B 12E'
p605
F129.0968628588627
sS'11E 9B'
p606
F38.600518131237564
sS'11B 0B'
p607
F200.55173896029922
sS'7E 1E'
p608
F171.49344010777787
sS'7E 1B'
p609
F171.49344010777787
sS'0B 6B'
p610
F136.4734406395618
sS'0B 6E'
p611
F135.988970140964
sS'11E 9E'
p612
F37.64306044943742
sS'4B 5E'
p613
F81.02468759581859
sS'12B 0E'
p614
F47.0
sS'6B 12B'
p615
F124.32618388738553
sS'10B 2B'
p616
F181.7305698004604
sS'1E 4B'
p617
F117.88553770501282
sS'2B 3B'
p618
F111.12605455067681
sS'2B 3E'
p619
F110.16351483136329
sS'1E 4E'
p620
F116.72617529928752
sS'3B 12B'
p621
F116.3486140871476
sS'10B 6B'
p622
F62.93647591023825
sS'10B 6E'
p623
F63.60031446463138
sS'3B 12E'
p624
F121.10326172320876
s.