(dp0
S'5B 2B'
p1
F155.58920271021378
sS'8E 4E'
p2
F53.75872022286245
sS'8E 4B'
p3
F52.952809179494906
sS'5B 2E'
p4
F154.8967397978408
sS'10B 4B'
p5
F119.20570456148481
sS'10E 11E'
p6
F192.50194804209124
sS'7B 11E'
p7
F36.76955262170047
sS'4E 0E'
p8
F129.3560976529518
sS'4E 0B'
p9
F129.76902558006668
sS'7B 11B'
p10
F33.97057550292606
sS'10B 4E'
p11
F118.15244390193544
sS'9B 7E'
p12
F65.73431371817918
sS'9B 7B'
p13
F64.76109943476871
sS'11E 4B'
p14
F70.21395872616783
sS'8B 7B'
p15
F59.22837157984339
sS'3B 8E'
p16
F56.293871780150276
sS'4B 9B'
p17
F58.240879114244144
sS'5E 11E'
p18
F88.45903006477066
sS'5E 11B'
p19
F85.58621384311844
sS'4B 9E'
p20
F57.97413216254298
sS'3B 8B'
p21
F57.48912940721924
sS'8B 7E'
p22
F60.207972893961475
sS'10E 0B'
p23
F52.23983154643591
sS'2E 9B'
p24
F166.3640586184408
sS'8E 9B'
p25
F7.211102550927978
sS'2E 9E'
p26
F166.43316977093238
sS'10E 0E'
p27
F51.24451190127583
sS'1B 3B'
p28
F115.31695452100702
sS'1B 3E'
p29
F114.33722053644648
sS'9E 5E'
p30
F110.14535850411491
sS'9E 5B'
p31
F109.27488274987991
sS'4E 9E'
p32
F58.69412236331676
sS'3B 7B'
p33
F62.93647591023825
sS'3B 7E'
p34
F63.655321851358195
sS'4E 9B'
p35
F58.9406481131655
sS'5E 1E'
p36
F155.97435686676192
sS'5E 1B'
p37
F155.97435686676192
sS'0E 4E'
p38
F129.3560976529518
sS'0E 4B'
p39
F130.6789960169575
sS'9E 1B'
p40
F172.10461934532728
sS'1E 0E'
p41
F33.13608305156178
sS'1E 0B'
p42
F34.132096331752024
sS'11B 3B'
p43
F69.92138442565336
sS'8E 9E'
p44
F6.4031242374328485
sS'9E 1E'
p45
F172.10461934532728
sS'0B 3E'
p46
F128.35108102388543
sS'0B 3B'
p47
F129.24782396620841
sS'1E 10B'
p48
F14.317821063276353
sS'1E 10E'
p49
F19.697715603592208
sS'6E 2B'
p50
F118.1397477566293
sS'11B 3E'
p51
F70.8801805866774
sS'6E 2E'
p52
F117.881296226331
sS'2B 0B'
p53
F28.460498941515414
sS'2B 0E'
p54
F27.51363298439521
sS'2E 6B'
p55
F118.6001686339442
sS'10B 1B'
p56
F14.317821063276353
sS'10B 1E'
p57
F14.317821063276353
sS'2E 6E'
p58
F117.881296226331
sS'11E 1B'
p59
F187.7578227398262
sS'11E 1E'
p60
F187.7578227398262
sS'3E 7E'
p61
F64.35060217278468
sS'3E 7B'
p62
F63.63961030678928
sS'6E 4E'
p63
F6.4031242374328485
sS'7E 5B'
p64
F50.44799302251776
sS'7B 6E'
p65
F57.48912940721924
sS'7B 6B'
p66
F57.62811813689564
sS'7E 5E'
p67
F51.088159097779204
sS'2B 6E'
p68
F118.1397477566293
sS'3E 8B'
p69
F58.463663928973865
sS'3E 8E'
p70
F57.271284253105414
sS'8E 0B'
p71
F176.8219443394965
sS'8E 0E'
p72
F176.57009939398006
sS'8B 10E'
p73
F177.18069872308325
sS'8B 10B'
p74
F172.04650534085255
sS'9E 6E'
p75
F55.02726596879042
sS'9E 6B'
p76
F53.75872022286245
sS'3B 2E'
p77
F110.86027241532469
sS'3B 2B'
p78
F111.12605455067681
sS'5E 2E'
p79
F155.58920271021378
sS'8B 9E'
p80
F5.0
sS'8B 9B'
p81
F5.830951894845301
sS'5E 2B'
p82
F156.28499608087785
sS'10B 3E'
p83
F115.35163631262454
sS'10B 3B'
p84
F116.3486140871476
sS'5B 1B'
p85
F155.32224567009067
sS'5B 1E'
p86
F155.32224567009067
sS'6B 2B'
p87
F118.84864324004712
sS'6E 9E'
p88
F55.02726596879042
sS'6E 9B'
p89
F55.362442142665635
sS'6B 2E'
p90
F118.6001686339442
sS'3E 11E'
p91
F73.49829930005184
sS'6B 11B'
p92
F62.297672508690084
sS'5B 11B'
p93
F84.8999411071645
sS'5B 11E'
p94
F87.78382538941898
sS'6B 11E'
p95
F64.8459713474939
sS'3E 11B'
p96
F70.8801805866774
sS'1B 7E'
p97
F171.49344010777787
sS'1B 7B'
p98
F171.09354166653983
sS'8B 0B'
p99
F177.53872816937718
sS'8B 0E'
p100
F177.2935419015594
sS'10E 7B'
p101
F172.40939649566667
sS'11B 10E'
p102
F189.6549498431296
sS'11B 8B'
p103
F34.785054261852174
sS'7E 2B'
p104
F169.04733065032408
sS'7B 9E'
p105
F63.788713735268246
sS'7B 9B'
p106
F64.76109943476871
sS'7E 2E'
p107
F168.6001186239203
sS'11B 8E'
p108
F34.17601498127012
sS'0B 7B'
p109
F189.74720024284943
sS'2E 10E'
p110
F27.784887978899608
sS'2E 10B'
p111
F21.93171219946131
sS'0B 7E'
p112
F190.2866259094422
sS'10B 2E'
p113
F21.93171219946131
sS'4B 5B'
p114
F80.02499609497022
sS'11E 10E'
p115
F192.50194804209124
sS'11E 10B'
p116
F188.09572031282372
sS'11B 4E'
p117
F68.9492567037528
sS'1E 5E'
p118
F155.97435686676192
sS'11B 1B'
p119
F185.06485349736184
sS'11B 1E'
p120
F185.06485349736184
sS'1E 5B'
p121
F155.32224567009067
sS'4B 11B'
p122
F67.67569726275453
sS'4B 11E'
p123
F70.21395872616783
sS'10B 2B'
p124
F22.847319317591726
sS'7B 2B'
p125
F168.6001186239203
sS'7B 2E'
p126
F168.15766411317682
sS'9B 2E'
p127
F166.3640586184408
sS'7E 9E'
p128
F64.76109943476871
sS'7E 9B'
p129
F65.73431371817918
sS'9B 2B'
p130
F166.43316977093238
sS'3B 0E'
p131
F128.80993750483694
sS'3E 4E'
p132
F4.242640687119285
sS'3E 4B'
p133
F4.47213595499958
sS'5E 10E'
p134
F151.43315356948756
sS'5E 10B'
p135
F149.61617559608987
sS'4B 6E'
p136
F5.0
sS'8B 4E'
p137
F54.91812087098393
sS'8B 4B'
p138
F54.12947441089743
sS'4B 6B'
p139
F5.385164807134504
sS'9E 11B'
p140
F37.8549864614954
sS'10E 1B'
p141
F19.697715603592208
sS'10E 1E'
p142
F19.697715603592208
sS'3B 0B'
p143
F129.24782396620841
sS'7E 3E'
p144
F64.35060217278468
sS'2E 8E'
p145
F162.88953311984167
sS'2E 8B'
p146
F163.783393541592
sS'1B 2E'
p147
F8.48528137423857
sS'4E 10E'
p148
F123.01625908797584
sS'4E 10B'
p149
F118.15244390193544
sS'1B 2B'
p150
F9.219544457292887
sS'3B 6B'
p151
F8.0
sS'4E 8E'
p152
F53.75872022286245
sS'4E 8B'
p153
F54.91812087098393
sS'3B 6E'
p154
F7.0710678118654755
sS'5E 6B'
p155
F79.05694150420949
sS'5E 6E'
p156
F78.02563681252464
sS'7E 3B'
p157
F63.655321851358195
sS'0E 7B'
p158
F189.21152184790438
sS'0E 7E'
p159
F189.74720024284943
sS'10B 5E'
p160
F149.61617559608987
sS'10B 5B'
p161
F149.03019828209315
sS'11E 5E'
p162
F88.45903006477066
sS'11E 5B'
p163
F87.78382538941898
sS'10B 11B'
p164
F185.28356645962967
sS'10E 8B'
p165
F177.18069872308325
sS'11B 7B'
p166
F33.97057550292606
sS'10B 11E'
p167
F188.09572031282372
sS'6E 5B'
p168
F77.02596964660685
sS'4B 1B'
p169
F117.88553770501282
sS'4B 1E'
p170
F117.88553770501282
sS'6E 5E'
p171
F78.02563681252464
sS'2B 5E'
p172
F156.28499608087785
sS'2B 5B'
p173
F155.58920271021378
sS'2E 1B'
p174
F8.48528137423857
sS'2E 1E'
p175
F8.48528137423857
sS'0B 11E'
p176
F200.92784774639875
sS'0B 11B'
p177
F198.53966858036205
sS'1B 9E'
p178
F172.10461934532728
sS'3E 0B'
p179
F128.35108102388543
sS'3E 0E'
p180
F127.91012469699183
sS'7B 5B'
p181
F51.088159097779204
sS'1E 8E'
p182
F168.35973390332975
sS'1E 8B'
p183
F169.29559947027565
sS'7B 5E'
p184
F51.73973328110612
sS'9B 1E'
p185
F172.07265907168403
sS'7E 6E'
p186
F58.25804665451803
sS'7E 6B'
p187
F58.412327466040935
sS'9B 1B'
p188
F172.07265907168403
sS'3E 9B'
p189
F62.6418390534633
sS'1B 9B'
p190
F172.07265907168403
sS'3E 9E'
p191
F62.36184731067546
sS'8E 7B'
p192
F58.05170109479997
sS'8E 7E'
p193
F59.033888572581766
sS'4E 3B'
p194
F3.605551275463989
sS'4E 3E'
p195
F4.242640687119285
sS'0E 10B'
p196
F47.0
sS'0E 10E'
p197
F51.24451190127583
sS'10E 9B'
p198
F180.46883387443938
sS'10E 9E'
p199
F180.3995565404749
sS'9B 6B'
p200
F54.08326913195984
sS'5B 4E'
p201
F81.05553651663777
sS'5B 4B'
p202
F80.02499609497022
sS'9B 6E'
p203
F55.362442142665635
sS'1B 6B'
p204
F123.1665539016173
sS'11E 0E'
p205
F200.55173896029922
sS'11E 0B'
p206
F200.92784774639875
sS'1B 6E'
p207
F122.37646832622684
sS'6E 8B'
p208
F50.96076922496363
sS'4B 2B'
p209
F113.50770898930169
sS'4B 2E'
p210
F113.26517558367179
sS'6E 8E'
p211
F49.72926703662542
sS'6B 3E'
p212
F9.0
sS'6B 3B'
p213
F8.0
sS'3E 10B'
p214
F115.35163631262454
sS'7E 11B'
p215
F34.713109915419565
sS'7E 11E'
p216
F37.48332962798263
sS'3E 10E'
p217
F120.10412149464314
sS'6B 10E'
p218
F129.0968628588627
sS'6B 10B'
p219
F124.32618388738553
sS'2B 8B'
p220
F163.88410539158457
sS'2B 8E'
p221
F162.9969324864735
sS'10B 9B'
p222
F175.231275747225
sS'10B 9E'
p223
F175.18276170902203
sS'10E 8E'
p224
F176.13914953808538
sS'2B 1B'
p225
F9.219544457292887
sS'6E 1E'
p226
F122.37646832622684
sS'6E 1B'
p227
F122.37646832622684
sS'2B 1E'
p228
F9.219544457292887
sS'1E 6E'
p229
F122.37646832622684
sS'11B 6B'
p230
F62.297672508690084
sS'11B 6E'
p231
F62.93647591023825
sS'1E 6B'
p232
F123.1665539016173
sS'2E 5E'
p233
F155.58920271021378
sS'2E 5B'
p234
F154.8967397978408
sS'1B 8E'
p235
F168.35973390332975
sS'4B 10E'
p236
F124.03628501370073
sS'6E 10B'
p237
F123.40583454602137
sS'6E 10E'
p238
F128.14054783713078
sS'5E 8B'
p239
F105.19030373565806
sS'5E 8E'
p240
F103.83159442096611
sS'2B 11E'
p241
F183.65728953678914
sS'7B 1E'
p242
F171.09354166653983
sS'9B 5B'
p243
F110.14535850411491
sS'9B 5E'
p244
F111.01801655587259
sS'7B 1B'
p245
F171.09354166653983
sS'4E 2B'
p246
F112.29425630903836
sS'3E 5E'
p247
F79.22752047110903
sS'3E 5B'
p248
F78.23042886243178
sS'8B 1E'
p249
F169.29559947027565
sS'10E 4E'
p250
F123.01625908797584
sS'8B 1B'
p251
F169.29559947027565
sS'11B 2B'
p252
F181.0414317221337
sS'10E 4B'
p253
F124.03628501370073
sS'0E 3E'
p254
F127.91012469699183
sS'0E 3B'
p255
F128.80993750483694
sS'8E 3E'
p256
F57.271284253105414
sS'5B 9B'
p257
F110.14535850411491
sS'5B 9E'
p258
F109.27488274987991
sS'8E 3B'
p259
F56.293871780150276
sS'9E 7E'
p260
F64.76109943476871
sS'9E 7B'
p261
F63.788713735268246
sS'3B 1B'
p262
F115.31695452100702
sS'4E 7E'
p263
F64.53681120105021
sS'4E 7B'
p264
F63.7808748764079
sS'3B 1E'
p265
F115.31695452100702
sS'5E 3E'
p266
F79.22752047110903
sS'5E 3B'
p267
F79.1580697086532
sS'5B 0B'
p268
F181.289823211343
sS'5B 0E'
p269
F180.54639292990598
sS'3B 10E'
p270
F121.10326172320876
sS'6B 9E'
p271
F53.75872022286245
sS'3B 10B'
p272
F116.3486140871476
sS'6B 9B'
p273
F54.08326913195984
sS'11E 4E'
p274
F71.47027354082255
sS'1B 8B'
p275
F169.29559947027565
sS'2B 6B'
p276
F118.84864324004712
sS'6B 7B'
p277
F57.62811813689564
sS'6B 7E'
p278
F58.412327466040935
sS'6E 4B'
p279
F5.0
sS'2E 0E'
p280
F28.460498941515414
sS'9B 10E'
p281
F180.46883387443938
sS'9B 10B'
p282
F175.231275747225
sS'2E 0B'
p283
F29.410882339705484
sS'0B 10E'
p284
F52.23983154643591
sS'11E 3E'
p285
F73.49829930005184
sS'11E 3B'
p286
F72.53275122315436
sS'0B 10B'
p287
F48.0
sS'11B 5B'
p288
F84.8999411071645
sS'7B 8B'
p289
F59.22837157984339
sS'11B 9B'
p290
F38.8329756778952
sS'11B 9E'
p291
F37.8549864614954
sS'7B 8E'
p292
F58.05170109479997
sS'2E 11B'
p293
F180.76780686836912
sS'2E 11E'
p294
F183.3930205869351
sS'0B 4E'
p295
F129.76902558006668
sS'0B 4B'
p296
F131.0953851209111
sS'11B 10B'
p297
F185.28356645962967
sS'1E 2B'
p298
F9.219544457292887
sS'1E 2E'
p299
F8.48528137423857
sS'0E 6E'
p300
F135.56548233234005
sS'0E 6B'
p301
F136.0588108135596
sS'8E 6E'
p302
F49.72926703662542
sS'9E 11E'
p303
F37.64306044943742
sS'8E 6B'
p304
F48.507731342539614
sS'9E 8E'
p305
F6.4031242374328485
sS'9E 8B'
p306
F5.0
sS'4E 2E'
p307
F112.05802068571441
sS'0E 11B'
p308
F198.15398053029367
sS'0E 11E'
p309
F200.55173896029922
sS'2B 11B'
p310
F181.0414317221337
sS'0E 9B'
p311
F179.07819521091898
sS'0E 9E'
p312
F179.2930561957155
sS'5B 7B'
p313
F51.088159097779204
sS'5B 7E'
p314
F50.44799302251776
sS'1B 10E'
p315
F19.697715603592208
sS'1B 10B'
p316
F14.317821063276353
sS'8B 5B'
p317
F104.31682510506155
sS'4B 7E'
p318
F63.12685640834652
sS'4B 7B'
p319
F62.369864518050704
sS'8B 5E'
p320
F105.19030373565806
sS'6B 0E'
p321
F136.0588108135596
sS'9E 2B'
p322
F166.50825805346713
sS'9E 10E'
p323
F180.3995565404749
sS'6B 0B'
p324
F136.4734406395618
sS'9E 2E'
p325
F166.43316977093238
sS'10B 0E'
p326
F47.0
sS'10E 2B'
p327
F28.653097563788805
sS'4E 11E'
p328
F71.47027354082255
sS'1B 5B'
p329
F155.32224567009067
sS'1B 5E'
p330
F155.97435686676192
sS'4E 11B'
p331
F68.9492567037528
sS'10B 0B'
p332
F48.0
sS'5E 7B'
p333
F51.73973328110612
sS'3B 5E'
p334
F79.1580697086532
sS'9E 10B'
p335
F175.18276170902203
sS'3B 5B'
p336
F78.16009211867653
sS'5E 7E'
p337
F51.088159097779204
sS'8B 2E'
p338
F163.783393541592
sS'10E 11B'
p339
F189.6549498431296
sS'8B 2B'
p340
F163.88410539158457
sS'2B 9B'
p341
F166.43316977093238
sS'2B 9E'
p342
F166.50825805346713
sS'7E 0E'
p343
F189.74720024284943
sS'10B 8E'
p344
F171.0263137648707
sS'4B 10B'
p345
F119.20570456148481
sS'10B 8B'
p346
F172.04650534085255
sS'7E 0B'
p347
F190.2866259094422
sS'0B 1E'
p348
F34.132096331752024
sS'10E 2E'
p349
F27.784887978899608
sS'0B 1B'
p350
F34.132096331752024
sS'6E 0B'
p351
F135.988970140964
sS'6E 0E'
p352
F135.56548233234005
sS'1E 7E'
p353
F171.49344010777787
sS'1E 7B'
p354
F171.09354166653983
sS'10B 7B'
p355
F168.86681142249356
sS'2E 4B'
p356
F113.26517558367179
sS'2E 4E'
p357
F112.05802068571441
sS'10B 7E'
p358
F169.1892431568863
sS'3E 1B'
p359
F114.33722053644648
sS'9E 3B'
p360
F61.40032573203501
sS'3E 1E'
p361
F114.33722053644648
sS'1E 9B'
p362
F172.07265907168403
sS'1E 9E'
p363
F172.10461934532728
sS'7B 4E'
p364
F63.7808748764079
sS'9B 0E'
p365
F179.07819521091898
sS'9B 0B'
p366
F179.2930561957155
sS'7B 4B'
p367
F62.369864518050704
sS'0B 8B'
p368
F177.53872816937718
sS'9E 3E'
p369
F62.36184731067546
sS'0B 8E'
p370
F176.8219443394965
sS'4B 8E'
p371
F52.952809179494906
sS'8B 6B'
p372
F49.72926703662542
sS'8B 6E'
p373
F50.96076922496363
sS'4B 8B'
p374
F54.12947441089743
sS'0E 2B'
p375
F27.51363298439521
sS'0E 2E'
p376
F28.460498941515414
sS'5B 8B'
p377
F104.31682510506155
sS'8E 2B'
p378
F162.9969324864735
sS'8E 2E'
p379
F162.88953311984167
sS'5B 8E'
p380
F102.95630140987001
sS'9E 4B'
p381
F57.97413216254298
sS'1B 0E'
p382
F33.13608305156178
sS'1B 0B'
p383
F34.132096331752024
sS'9E 4E'
p384
F58.69412236331676
sS'8E 10B'
p385
F171.0263137648707
sS'4E 6B'
p386
F6.708203932499369
sS'4E 6E'
p387
F6.4031242374328485
sS'5E 0B'
p388
F182.03571078225283
sS'10E 6B'
p389
F129.0968628588627
sS'5E 0E'
p390
F181.289823211343
sS'0E 5E'
p391
F181.289823211343
sS'0E 5B'
p392
F180.54639292990598
sS'11E 7B'
p393
F36.76955262170047
sS'11E 7E'
p394
F37.48332962798263
sS'8E 10E'
p395
F176.13914953808538
sS'4B 3B'
p396
F3.605551275463989
sS'4B 3E'
p397
F4.47213595499958
sS'6E 7E'
p398
F58.25804665451803
sS'6B 4B'
p399
F5.385164807134504
sS'6B 4E'
p400
F6.708203932499369
sS'6E 7B'
p401
F57.48912940721924
sS'2E 3E'
p402
F109.89540481748998
sS'7E 10E'
p403
F172.70205557549104
sS'7E 10B'
p404
F169.1892431568863
sS'2E 3B'
p405
F110.86027241532469
sS'3B 9B'
p406
F61.68468205316454
sS'3B 9E'
p407
F61.40032573203501
sS'7E 4B'
p408
F63.12685640834652
sS'7E 4E'
p409
F64.53681120105021
sS'0B 5B'
p410
F181.289823211343
sS'0B 5E'
p411
F182.03571078225283
sS'10E 5E'
p412
F151.43315356948756
sS'1E 3B'
p413
F115.31695452100702
sS'1E 3E'
p414
F114.33722053644648
sS'8E 5E'
p415
F103.83159442096611
sS'5B 3E'
p416
F78.23042886243178
sS'5B 3B'
p417
F78.16009211867653
sS'8E 5B'
p418
F102.95630140987001
sS'7B 10B'
p419
F168.86681142249356
sS'7B 10E'
p420
F172.40939649566667
sS'4E 1E'
p421
F116.72617529928752
sS'6E 11E'
p422
F65.52098900352466
sS'6E 11B'
p423
F62.93647591023825
sS'4E 1B'
p424
F116.72617529928752
sS'5E 9E'
p425
F110.14535850411491
sS'10E 5B'
p426
F150.88074761214565
sS'5E 9B'
p427
F111.01801655587259
sS'9B 4B'
p428
F58.240879114244144
sS'7B 0B'
p429
F189.74720024284943
sS'7B 0E'
p430
F189.21152184790438
sS'9B 4E'
p431
F58.9406481131655
sS'3E 6B'
p432
F9.0
sS'3E 6E'
p433
F8.06225774829855
sS'6B 1E'
p434
F123.1665539016173
sS'6B 1B'
p435
F123.1665539016173
sS'10E 3B'
p436
F121.10326172320876
sS'10E 3E'
p437
F120.10412149464314
sS'1B 4B'
p438
F117.88553770501282
sS'11E 9B'
p439
F38.600518131237564
sS'11E 9E'
p440
F37.64306044943742
sS'1B 4E'
p441
F116.72617529928752
sS'9E 0E'
p442
F179.2930561957155
sS'9E 0B'
p443
F179.51323071016242
sS'3B 4B'
p444
F3.605551275463989
sS'8E 11B'
p445
F34.17601498127012
sS'8E 11E'
p446
F34.438350715445125
sS'3B 4E'
p447
F3.605551275463989
sS'5E 4E'
p448
F82.05485969764375
sS'8B 3E'
p449
F58.463663928973865
sS'8B 3B'
p450
F57.48912940721924
sS'5E 4B'
p451
F81.02468759581859
sS'3B 11B'
p452
F69.92138442565336
sS'3B 11E'
p453
F72.53275122315436
sS'10E 6E'
p454
F128.14054783713078
sS'0B 2E'
p455
F29.410882339705484
sS'0B 2B'
p456
F28.460498941515414
sS'1E 11B'
p457
F185.06485349736184
sS'1E 11E'
p458
F187.7578227398262
sS'6E 3B'
p459
F7.0710678118654755
sS'6E 3E'
p460
F8.06225774829855
sS'6B 8E'
p461
F48.507731342539614
sS'2B 7E'
p462
F169.04733065032408
sS'2B 7B'
p463
F168.6001186239203
sS'6B 8B'
p464
F49.72926703662542
sS'9B 11E'
p465
F38.600518131237564
sS'10E 7E'
p466
F172.70205557549104
sS'2E 7B'
p467
F168.15766411317682
sS'2E 7E'
p468
F168.6001186239203
sS'9B 11B'
p469
F38.8329756778952
sS'11E 2E'
p470
F183.3930205869351
sS'11E 8E'
p471
F34.438350715445125
sS'11E 2B'
p472
F183.65728953678914
sS'3E 2E'
p473
F109.89540481748998
sS'3E 2B'
p474
F110.16351483136329
sS'9B 3B'
p475
F61.68468205316454
sS'7B 3B'
p476
F62.93647591023825
sS'7B 3E'
p477
F63.63961030678928
sS'9B 3E'
p478
F62.6418390534633
sS'7E 8E'
p479
F59.033888572581766
sS'7E 8B'
p480
F60.207972893961475
sS'0B 9E'
p481
F179.51323071016242
sS'0B 9B'
p482
F179.2930561957155
sS'0E 1B'
p483
F33.13608305156178
sS'0E 1E'
p484
F33.13608305156178
sS'8E 1B'
p485
F168.35973390332975
sS'8E 1E'
p486
F168.35973390332975
sS'8B 11E'
p487
F34.92849839314596
sS'8B 11B'
p488
F34.785054261852174
sS'11E 8B'
p489
F34.92849839314596
sS'2B 10B'
p490
F22.847319317591726
sS'4E 5B'
p491
F81.05553651663777
sS'4E 5E'
p492
F82.05485969764375
sS'11B 7E'
p493
F34.713109915419565
sS'2B 10E'
p494
F28.653097563788805
sS'11B 5E'
p495
F85.58621384311844
sS'0E 8B'
p496
F177.2935419015594
sS'0E 8E'
p497
F176.57009939398006
sS'1B 11E'
p498
F187.7578227398262
sS'5B 6E'
p499
F77.02596964660685
sS'9B 8E'
p500
F7.211102550927978
sS'9B 8B'
p501
F5.830951894845301
sS'5B 6B'
p502
F78.05767098754612
sS'1B 11B'
p503
F185.06485349736184
sS'11E 6B'
p504
F64.8459713474939
sS'11E 6E'
p505
F65.52098900352466
sS'11B 4B'
p506
F67.67569726275453
sS'6B 5B'
p507
F78.05767098754612
sS'4B 0E'
p508
F130.6789960169575
sS'4B 0B'
p509
F131.0953851209111
sS'6B 5E'
p510
F79.05694150420949
sS'2B 4E'
p511
F112.29425630903836
sS'2B 4B'
p512
F113.50770898930169
sS'11B 2E'
p513
F180.76780686836912
sS'5B 10B'
p514
F149.03019828209315
sS'7E 1E'
p515
F171.49344010777787
sS'7E 1B'
p516
F171.49344010777787
sS'0B 6B'
p517
F136.4734406395618
sS'0B 6E'
p518
F135.988970140964
sS'4B 5E'
p519
F81.02468759581859
sS'5B 10E'
p520
F150.88074761214565
sS'1E 4B'
p521
F117.88553770501282
sS'2B 3B'
p522
F111.12605455067681
sS'2B 3E'
p523
F110.16351483136329
sS'1E 4E'
p524
F116.72617529928752
sS'11B 0B'
p525
F198.53966858036205
sS'10B 6B'
p526
F124.32618388738553
sS'10B 6E'
p527
F123.40583454602137
sS'11B 0E'
p528
F198.15398053029367
s.