(dp0
S'5B 2B'
p1
F22.847319317591726
sS'8E 4E'
p2
F155.97435686676192
sS'8E 4B'
p3
F155.97435686676192
sS'5B 2E'
p4
F23.769728648009426
sS'10B 4B'
p5
F171.09354166653983
sS'4B 12B'
p6
F172.07265907168403
sS'10E 11E'
p7
F59.033888572581766
sS'4B 12E'
p8
F172.10461934532728
sS'2B 13B'
p9
F186.11824198610947
sS'7B 11E'
p10
F52.952809179494906
sS'4E 0E'
p11
F19.697715603592208
sS'4E 0B'
p12
F18.788294228055936
sS'7B 11B'
p13
F54.12947441089743
sS'2B 13E'
p14
F185.28356645962967
sS'13E 9E'
p15
F62.93647591023825
sS'11B 13B'
p16
F34.17601498127012
sS'13B 2E'
p17
F185.9704277566732
sS'13B 2B'
p18
F186.11824198610947
sS'10B 4E'
p19
F171.09354166653983
sS'11B 13E'
p20
F34.785054261852174
sS'9B 7E'
p21
F6.708203932499369
sS'14E 0B'
p22
F192.62917743685665
sS'9B 7B'
p23
F5.385164807134504
sS'11E 4B'
p24
F168.35973390332975
sS'8B 7B'
p25
F80.02499609497022
sS'3B 8E'
p26
F182.03571078225283
sS'4B 9B'
p27
F123.1665539016173
sS'5E 11E'
p28
F162.88953311984167
sS'5E 11B'
p29
F163.783393541592
sS'4B 9E'
p30
F122.37646832622684
sS'3B 8B'
p31
F181.289823211343
sS'8B 7E'
p32
F81.05553651663777
sS'12E 5E'
p33
F166.43316977093238
sS'12E 5B'
p34
F166.50825805346713
sS'10E 0B'
p35
F173.0
sS'2E 9B'
p36
F124.25779653607253
sS'8E 9B'
p37
F79.05694150420949
sS'12B 11B'
p38
F5.830951894845301
sS'2E 9E'
p39
F123.3288287465668
sS'10E 0E'
p40
F172.70205557549104
sS'1B 3B'
p41
F51.03920062069938
sS'13B 8B'
p42
F86.31338250816034
sS'1B 3E'
p43
F50.039984012787215
sS'9E 5E'
p44
F117.881296226331
sS'9E 5B'
p45
F118.1397477566293
sS'4E 9E'
p46
F122.37646832622684
sS'10E 13B'
p47
F36.124783736376884
sS'3B 7B'
p48
F131.0953851209111
sS'3B 7E'
p49
F129.76902558006668
sS'10E 13E'
p50
F34.713109915419565
sS'4E 9B'
p51
F123.1665539016173
sS'13E 12E'
p52
F37.8549864614954
sS'5E 1E'
p53
F26.832815729997478
sS'5E 1B'
p54
F25.495097567963924
sS'13E 12B'
p55
F38.8329756778952
sS'0E 4E'
p56
F19.697715603592208
sS'0E 4B'
p57
F19.697715603592208
sS'1B 7E'
p58
F120.03749414245534
sS'1E 0E'
p59
F2.0
sS'1E 0B'
p60
F2.23606797749979
sS'11B 3B'
p61
F177.53872816937718
sS'8E 9E'
p62
F78.02563681252464
sS'2E 14B'
p63
F187.8084130170957
sS'2E 14E'
p64
F187.94946129212502
sS'1B 7B'
p65
F121.06609764917675
sS'13E 1B'
p66
F186.81809334215998
sS'0B 3E'
p67
F50.24937810560445
sS'0B 3B'
p68
F51.24451190127583
sS'13E 1E'
p69
F187.6725872363889
sS'1E 10B'
p70
F170.49633427144408
sS'1E 10E'
p71
F170.79227148791014
sS'6E 2B'
p72
F115.35163631262454
sS'13B 8E'
p73
F87.0
sS'11B 3E'
p74
F177.2935419015594
sS'6E 2E'
p75
F115.27792503337315
sS'12E 8E'
p76
F110.14535850411491
sS'2B 0B'
p77
F5.830951894845301
sS'2B 0E'
p78
F6.4031242374328485
sS'12E 8B'
p79
F109.27488274987991
sS'2E 6B'
p80
F116.27553482998907
sS'9B 12B'
p81
F54.08326913195984
sS'9B 12E'
p82
F53.75872022286245
sS'2E 6E'
p83
F115.27792503337315
sS'11E 1B'
p84
F173.1040149736568
sS'13E 8B'
p85
F84.8999411071645
sS'13E 8E'
p86
F85.58621384311844
sS'11E 1E'
p87
F174.14074767268
sS'3E 7E'
p88
F129.3560976529518
sS'3E 7B'
p89
F130.6789960169575
sS'6E 4E'
p90
F114.33722053644648
sS'14E 6E'
p91
F73.49829930005184
sS'8E 12E'
p92
F110.14535850411491
sS'7E 5B'
p93
F112.29425630903836
sS'7B 6E'
p94
F4.47213595499958
sS'7B 6B'
p95
F3.605551275463989
sS'7E 5E'
p96
F112.05802068571441
sS'6E 4B'
p97
F114.33722053644648
sS'3E 8B'
p98
F180.54639292990598
sS'3E 8E'
p99
F181.289823211343
sS'13B 14B'
p100
F2.23606797749979
sS'12B 4B'
p101
F172.07265907168403
sS'12B 4E'
p102
F172.07265907168403
sS'8E 12B'
p103
F111.01801655587259
sS'14E 3B'
p104
F200.92784774639875
sS'13B 14E'
p105
F2.0
sS'13B 9E'
p106
F63.60031446463138
sS'12E 6E'
p107
F62.36184731067546
sS'12E 6B'
p108
F61.40032573203501
sS'13B 9B'
p109
F62.93647591023825
sS'8E 0B'
p110
F151.99013125857877
sS'12E 4B'
p111
F172.10461934532728
sS'8E 0E'
p112
F151.43315356948756
sS'8B 10E'
p113
F50.44799302251776
sS'8B 10B'
p114
F51.088159097779204
sS'9E 6E'
p115
F8.06225774829855
sS'9E 6B'
p116
F7.0710678118654755
sS'0E 13B'
p117
F190.51771571168914
sS'3B 2E'
p118
F49.0
sS'3B 2B'
p119
F48.0
sS'0E 13E'
p120
F189.6549498431296
sS'6B 14B'
p121
F72.27724399837061
sS'5E 2E'
p122
F22.847319317591726
sS'8B 9E'
p123
F77.02596964660685
sS'8B 9B'
p124
F78.05767098754612
sS'5E 2B'
p125
F21.93171219946131
sS'14E 12E'
p126
F37.64306044943742
sS'10B 3E'
p127
F189.21152184790438
sS'14E 12B'
p128
F38.600518131237564
sS'10B 3B'
p129
F189.74720024284943
sS'1B 12B'
p130
F177.40631330367023
sS'5B 1B'
p131
F26.40075756488817
sS'5B 1E'
p132
F27.730849247724095
sS'1B 12E'
p133
F177.341478509682
sS'0B 12E'
p134
F180.33579788827288
sS'0B 12B'
p135
F180.3995565404749
sS'14B 9E'
p136
F65.25335240430181
sS'13B 7B'
p137
F68.30812543175226
sS'13E 14E'
p138
F3.1622776601683795
sS'4B 5E'
p139
F8.48528137423857
sS'6E 9E'
p140
F8.06225774829855
sS'14E 0E'
p141
F192.50194804209124
sS'6E 9B'
p142
F9.0
sS'4B 5B'
p143
F9.219544457292887
sS'9E 12B'
p144
F55.362442142665635
sS'9E 12E'
p145
F55.02726596879042
sS'13E 14B'
p146
F3.605551275463989
sS'7E 12E'
p147
F58.69412236331676
sS'3E 11E'
p148
F176.57009939398006
sS'6B 11B'
p149
F57.48912940721924
sS'5B 11B'
p150
F163.88410539158457
sS'5B 11E'
p151
F162.9969324864735
sS'6B 11E'
p152
F56.293871780150276
sS'3E 11B'
p153
F177.2935419015594
sS'7E 12B'
p154
F58.9406481131655
sS'4E 13E'
p155
F185.06485349736184
sS'4E 13B'
p156
F185.80904176062046
sS'8B 0B'
p157
F151.43315356948756
sS'14B 6E'
p158
F73.24616030891995
sS'8B 0E'
p159
F150.88074761214565
sS'10E 7B'
p160
F63.12685640834652
sS'11B 10E'
p161
F60.207972893961475
sS'12E 10E'
p162
F64.76109943476871
sS'11B 8B'
p163
F104.31682510506155
sS'7E 2B'
p164
F118.15244390193544
sS'7B 9E'
p165
F5.0
sS'7B 9B'
p166
F5.385164807134504
sS'7E 2E'
p167
F118.10588469674151
sS'11B 8E'
p168
F105.19030373565806
sS'0B 7B'
p169
F124.06449935416659
sS'2E 10E'
p170
F168.86681142249356
sS'2E 10B'
p171
F168.5496959356498
sS'0B 7E'
p172
F123.03657992645927
sS'10B 2E'
p173
F168.5496959356498
sS'1B 0E'
p174
F3.1622776601683795
sS'14E 7B'
p175
F70.21395872616783
sS'11E 10E'
p176
F59.033888572581766
sS'5B 14B'
p177
F183.3930205869351
sS'12B 3B'
p178
F179.2930561957155
sS'12B 3E'
p179
F179.07819521091898
sS'11E 10B'
p180
F58.05170109479997
sS'11B 4E'
p181
F169.29559947027565
sS'14B 13B'
p182
F2.23606797749979
sS'1E 5E'
p183
F26.832815729997478
sS'10B 0E'
p184
F172.40939649566667
sS'3B 13B'
p185
F199.07787421006887
sS'3B 13E'
p186
F198.53966858036205
sS'1E 5B'
p187
F27.730849247724095
sS'4B 11B'
p188
F169.29559947027565
sS'14E 7E'
p189
F71.47027354082255
sS'4B 11E'
p190
F168.35973390332975
sS'6E 13E'
p191
F70.8801805866774
sS'7B 12E'
p192
F57.97413216254298
sS'7B 12B'
p193
F58.240879114244144
sS'13B 7E'
p194
F69.57010852370435
sS'6E 13B'
p195
F71.56814934033156
sS'13E 9B'
p196
F62.297672508690084
sS'0E 14E'
p197
F192.50194804209124
sS'0E 14B'
p198
F192.37983262286096
sS'7B 2B'
p199
F119.20570456148481
sS'7B 2E'
p200
F119.15116449284078
sS'9B 2E'
p201
F124.25779653607253
sS'7E 9E'
p202
F6.4031242374328485
sS'7E 9B'
p203
F6.708203932499369
sS'9B 2B'
p204
F124.32618388738553
sS'3B 0E'
p205
F52.23983154643591
sS'3E 4E'
p206
F33.13608305156178
sS'6B 14E'
p207
F72.53275122315436
sS'3E 4B'
p208
F33.13608305156178
sS'5E 10E'
p209
F168.6001186239203
sS'10E 14E'
p210
F37.48332962798263
sS'5E 10B'
p211
F168.15766411317682
sS'4B 6E'
p212
F114.33722053644648
sS'8B 4E'
p213
F155.32224567009067
sS'8B 4B'
p214
F155.32224567009067
sS'4B 6B'
p215
F115.31695452100702
sS'9E 11B'
p216
F50.96076922496363
sS'10E 1B'
p217
F170.14111789923092
sS'10E 1E'
p218
F170.79227148791014
sS'3B 0B'
p219
F51.24451190127583
sS'7E 3E'
p220
F129.3560976529518
sS'2E 8E'
p221
F149.03019828209315
sS'3E 14E'
p222
F200.55173896029922
sS'8B 14B'
p223
F88.45903006477066
sS'8B 14E'
p224
F87.78382538941898
sS'3E 14B'
p225
F200.17991907281808
sS'2E 8B'
p226
F148.44864431849825
sS'1B 2E'
p227
F2.8284271247461903
sS'4E 10E'
p228
F171.49344010777787
sS'4E 10B'
p229
F171.09354166653983
sS'1B 2B'
p230
F3.605551275463989
sS'3B 6B'
p231
F129.24782396620841
sS'10E 12B'
p232
F65.73431371817918
sS'4E 8E'
p233
F155.97435686676192
sS'4E 8B'
p234
F155.32224567009067
sS'10E 12E'
p235
F64.76109943476871
sS'3B 6E'
p236
F128.35108102388543
sS'5E 6B'
p237
F110.86027241532469
sS'5E 6E'
p238
F109.89540481748998
sS'7E 3B'
p239
F129.76902558006668
sS'0E 7B'
p240
F124.03628501370073
sS'0E 7E'
p241
F123.01625908797584
sS'14B 13E'
p242
F3.605551275463989
sS'10B 5E'
p243
F168.15766411317682
sS'10B 5B'
p244
F168.6001186239203
sS'12E 4E'
p245
F172.10461934532728
sS'11E 5E'
p246
F162.88953311984167
sS'11E 5B'
p247
F162.9969324864735
sS'13E 4B'
p248
F185.06485349736184
sS'10B 11B'
p249
F59.22837157984339
sS'10E 8B'
p250
F50.44799302251776
sS'13B 12E'
p251
F37.107950630558946
sS'13B 12B'
p252
F38.07886552931954
sS'11B 7B'
p253
F54.12947441089743
sS'10B 11E'
p254
F58.05170109479997
sS'6E 5B'
p255
F110.16351483136329
sS'4B 1B'
p256
F17.72004514666935
sS'4B 1E'
p257
F18.973665961010276
sS'6E 5E'
p258
F109.89540481748998
sS'2B 5E'
p259
F21.93171219946131
sS'2B 5B'
p260
F22.847319317591726
sS'2E 1B'
p261
F2.8284271247461903
sS'12E 13E'
p262
F37.8549864614954
sS'14E 5E'
p263
F183.3930205869351
sS'2E 1E'
p264
F4.242640687119285
sS'12B 9E'
p265
F55.362442142665635
sS'12B 9B'
p266
F54.08326913195984
sS'0B 11E'
p267
F176.10224302944013
sS'0B 11B'
p268
F177.1383639983163
sS'1B 9E'
p269
F125.19584657647394
sS'3E 0B'
p270
F50.24937810560445
sS'3E 0E'
p271
F51.24451190127583
sS'10B 7E'
p272
F63.7808748764079
sS'7B 5B'
p273
F113.50770898930169
sS'1E 8E'
p274
F149.77316181479245
sS'11E 6B'
p275
F56.293871780150276
sS'1E 8B'
p276
F149.21461054467824
sS'7B 5E'
p277
F113.26517558367179
sS'9B 1E'
p278
F127.09838708654017
sS'14B 3B'
p279
F200.55173896029922
sS'7E 6E'
p280
F4.242640687119285
sS'6B 2E'
p281
F116.27553482998907
sS'7E 6B'
p282
F3.605551275463989
sS'9B 1B'
p283
F126.14277624977183
sS'3E 9B'
p284
F136.0588108135596
sS'1B 9B'
p285
F126.14277624977183
sS'3E 9E'
p286
F135.56548233234005
sS'12B 7E'
p287
F58.9406481131655
sS'12B 7B'
p288
F58.240879114244144
sS'8E 7B'
p289
F81.02468759581859
sS'13B 5E'
p290
F181.46349495146399
sS'8E 7E'
p291
F82.05485969764375
sS'14E 5B'
p292
F183.65728953678914
sS'14B 3E'
p293
F200.17991907281808
sS'14E 2B'
p294
F188.09572031282372
sS'4E 3B'
p295
F34.132096331752024
sS'2B 12B'
p296
F175.231275747225
sS'2B 12E'
p297
F175.18276170902203
sS'4E 3E'
p298
F33.13608305156178
sS'0E 10B'
p299
F172.40939649566667
sS'0E 10E'
p300
F172.70205557549104
sS'13B 3E'
p301
F198.69826370655582
sS'12B 8E'
p302
F111.01801655587259
sS'11B 12B'
p303
F5.830951894845301
sS'10E 9B'
p304
F58.412327466040935
sS'11B 12E'
p305
F5.0
sS'14B 9B'
p306
F64.5600495662759
sS'13B 3B'
p307
F199.07787421006887
sS'10E 9E'
p308
F58.25804665451803
sS'9B 6B'
p309
F8.0
sS'5B 4E'
p310
F9.219544457292887
sS'5B 4B'
p311
F9.219544457292887
sS'9B 6E'
p312
F9.0
sS'4B 14E'
p313
F187.7578227398262
sS'6B 10E'
p314
F63.655321851358195
sS'4B 14B'
p315
F187.5366630821824
sS'11E 0E'
p316
F176.13914953808538
sS'11E 0B'
p317
F176.10224302944013
sS'10B 12B'
p318
F64.76109943476871
sS'13B 11E'
p319
F33.61547262794322
sS'5E 14B'
p320
F183.13383084509536
sS'5E 14E'
p321
F183.3930205869351
sS'13B 11B'
p322
F34.17601498127012
sS'10B 12E'
p323
F63.788713735268246
sS'6B 10B'
p324
F62.93647591023825
sS'6E 8B'
p325
F78.23042886243178
sS'4B 2B'
p326
F14.317821063276353
sS'4B 2E'
p327
F15.297058540778355
sS'6E 8E'
p328
F79.22752047110903
sS'6E 14E'
p329
F73.49829930005184
sS'6B 3E'
p330
F128.80993750483694
sS'6B 3B'
p331
F129.24782396620841
sS'3E 10B'
p332
F189.21152184790438
sS'7E 11B'
p333
F54.91812087098393
sS'7E 11E'
p334
F53.75872022286245
sS'3E 10E'
p335
F189.74720024284943
sS'4E 14B'
p336
F187.5366630821824
sS'5B 12E'
p337
F166.50825805346713
sS'1B 6B'
p338
F118.15244390193544
sS'1B 6E'
p339
F117.15374513859982
sS'5B 12B'
p340
F166.43316977093238
sS'4E 14E'
p341
F187.7578227398262
sS'8E 13B'
p342
F87.0
sS'12E 13B'
p343
F37.107950630558946
sS'8E 13E'
p344
F85.58621384311844
sS'2B 8B'
p345
F149.03019828209315
sS'2B 8E'
p346
F149.61617559608987
sS'10B 9B'
p347
F57.62811813689564
sS'10B 9E'
p348
F57.48912940721924
sS'13E 0B'
p349
F189.7893569197177
sS'13E 0E'
p350
F189.6549498431296
sS'10E 8E'
p351
F51.088159097779204
sS'1E 13E'
p352
F187.6725872363889
sS'1E 13B'
p353
F188.53381659532593
sS'2B 1B'
p354
F3.605551275463989
sS'12E 9B'
p355
F53.75872022286245
sS'6E 1E'
p356
F118.10588469674151
sS'6E 1B'
p357
F117.15374513859982
sS'12E 9E'
p358
F55.02726596879042
sS'2B 1E'
p359
F5.0
sS'1E 6E'
p360
F118.10588469674151
sS'3B 14B'
p361
F200.55173896029922
sS'3B 14E'
p362
F200.92784774639875
sS'1E 6B'
p363
F119.10499569707393
sS'14E 9E'
p364
F65.52098900352466
sS'2E 5E'
p365
F22.847319317591726
sS'2E 5B'
p366
F23.769728648009426
sS'14E 9B'
p367
F64.8459713474939
sS'1B 13E'
p368
F186.81809334215998
sS'1B 8E'
p369
F149.5125412799876
sS'4B 10E'
p370
F171.49344010777787
sS'1B 13B'
p371
F187.6725872363889
sS'7B 13E'
p372
F67.67569726275453
sS'6E 10B'
p373
F63.63961030678928
sS'6E 10E'
p374
F64.35060217278468
sS'7E 10B'
p375
F63.7808748764079
sS'5E 8B'
p376
F154.8967397978408
sS'5E 8E'
p377
F155.58920271021378
sS'2B 11E'
p378
F171.0263137648707
sS'11E 14B'
p379
F33.54101966249684
sS'11E 8E'
p380
F103.83159442096611
sS'10E 3B'
p381
F190.2866259094422
sS'11E 14E'
p382
F34.438350715445125
sS'7B 1E'
p383
F122.03687967167957
sS'9B 5B'
p384
F118.84864324004712
sS'9B 5E'
p385
F118.6001686339442
sS'7B 1B'
p386
F121.06609764917675
sS'6E 14B'
p387
F73.24616030891995
sS'4E 2B'
p388
F14.317821063276353
sS'3E 5E'
p389
F28.460498941515414
sS'3E 5B'
p390
F27.51363298439521
sS'12E 7E'
p391
F58.69412236331676
sS'8B 1E'
p392
F149.21461054467824
sS'10E 4E'
p393
F171.49344010777787
sS'8B 1B'
p394
F148.94629904767692
sS'10B 0B'
p395
F172.70205557549104
sS'9E 14E'
p396
F65.52098900352466
sS'10E 4B'
p397
F171.49344010777787
sS'0E 3E'
p398
F51.24451190127583
sS'0E 3B'
p399
F52.23983154643591
sS'9E 14B'
p400
F65.25335240430181
sS'7E 1E'
p401
F121.01652779682617
sS'8E 3E'
p402
F181.289823211343
sS'5B 9B'
p403
F118.84864324004712
sS'5B 9E'
p404
F118.1397477566293
sS'8E 3B'
p405
F182.03571078225283
sS'9E 7E'
p406
F6.4031242374328485
sS'9E 7B'
p407
F5.0
sS'3B 1B'
p408
F51.03920062069938
sS'4E 7E'
p409
F116.72617529928752
sS'11E 2B'
p410
F171.0263137648707
sS'4E 7B'
p411
F117.88553770501282
sS'3B 1E'
p412
F52.08646657242167
sS'12B 14B'
p413
F37.64306044943742
sS'13E 10B'
p414
F33.97057550292606
sS'14B 5B'
p415
F183.3930205869351
sS'5E 3E'
p416
F28.460498941515414
sS'5E 3B'
p417
F29.410882339705484
sS'14B 5E'
p418
F183.13383084509536
sS'13E 10E'
p419
F34.713109915419565
sS'11B 1B'
p420
F174.14074767268
sS'14E 11B'
p421
F34.92849839314596
sS'14E 11E'
p422
F34.438350715445125
sS'5B 0B'
p423
F27.784887978899608
sS'9E 1B'
p424
F125.19584657647394
sS'5B 0E'
p425
F28.653097563788805
sS'3B 10E'
p426
F190.2866259094422
sS'6B 9E'
p427
F7.0710678118654755
sS'3B 10B'
p428
F189.74720024284943
sS'6B 9B'
p429
F8.0
sS'13E 7B'
p430
F67.67569726275453
sS'13E 7E'
p431
F68.9492567037528
sS'11E 4E'
p432
F168.35973390332975
sS'7B 14E'
p433
F70.21395872616783
sS'1B 8B'
p434
F148.94629904767692
sS'2B 6B'
p435
F116.3486140871476
sS'6B 7B'
p436
F3.605551275463989
sS'6B 7E'
p437
F3.605551275463989
sS'2B 6E'
p438
F115.35163631262454
sS'12E 11B'
p439
F5.0
sS'10B 1B'
p440
F169.83815825661793
sS'12E 11E'
p441
F6.4031242374328485
sS'2E 0E'
p442
F5.830951894845301
sS'9B 10E'
p443
F58.412327466040935
sS'9B 10B'
p444
F57.62811813689564
sS'7B 14B'
p445
F69.92138442565336
sS'2E 0B'
p446
F5.385164807134504
sS'0B 10E'
p447
F173.0
sS'11E 3E'
p448
F176.57009939398006
sS'11E 3B'
p449
F176.8219443394965
sS'0B 10B'
p450
F172.70205557549104
sS'11B 5B'
p451
F163.88410539158457
sS'14E 1E'
p452
F190.51771571168914
sS'7B 8B'
p453
F80.02499609497022
sS'11B 9B'
p454
F49.72926703662542
sS'11B 9E'
p455
F50.96076922496363
sS'7B 8E'
p456
F81.02468759581859
sS'9E 1E'
p457
F126.14277624977183
sS'2E 11B'
p458
F172.07265907168403
sS'12E 2E'
p459
F175.231275747225
sS'14B 10E'
p460
F38.2099463490856
sS'2E 11E'
p461
F171.04677722775136
sS'0B 4E'
p462
F18.788294228055936
sS'14E 8E'
p463
F88.45903006477066
sS'0B 4B'
p464
F18.788294228055936
sS'12B 8B'
p465
F110.14535850411491
sS'14E 8B'
p466
F87.78382538941898
sS'11B 10B'
p467
F59.22837157984339
sS'12B 2E'
p468
F175.28548142958104
sS'12B 2B'
p469
F175.231275747225
sS'1E 2B'
p470
F5.0
sS'1E 2E'
p471
F4.242640687119285
sS'0E 6E'
p472
F120.10412149464314
sS'0E 6B'
p473
F121.10326172320876
sS'8E 6E'
p474
F79.22752047110903
sS'9E 11E'
p475
F49.72926703662542
sS'8E 6B'
p476
F79.1580697086532
sS'9E 8E'
p477
F78.02563681252464
sS'12B 13E'
p478
F38.8329756778952
sS'12B 13B'
p479
F38.07886552931954
sS'9E 8B'
p480
F77.02596964660685
sS'4E 2E'
p481
F15.297058540778355
sS'0E 11B'
p482
F177.18069872308325
sS'0E 11E'
p483
F176.13914953808538
sS'2B 11B'
p484
F172.04650534085255
sS'14B 8B'
p485
F88.45903006477066
sS'13B 0B'
p486
F190.64626930522402
sS'13B 0E'
p487
F190.51771571168914
sS'14B 8E'
p488
F89.1403387922662
sS'0E 9B'
p489
F129.0968628588627
sS'0E 9E'
p490
F128.14054783713078
sS'11B 6B'
p491
F57.48912940721924
sS'5B 7B'
p492
F113.50770898930169
sS'5B 7E'
p493
F112.29425630903836
sS'1B 10E'
p494
F170.14111789923092
sS'1B 10B'
p495
F169.83815825661793
sS'11B 6E'
p496
F58.463663928973865
sS'5E 13B'
p497
F181.46349495146399
sS'12E 3B'
p498
F179.51323071016242
sS'5E 13E'
p499
F180.76780686836912
sS'12E 3E'
p500
F179.2930561957155
sS'8B 5B'
p501
F155.58920271021378
sS'4B 7E'
p502
F116.72617529928752
sS'4B 7B'
p503
F117.88553770501282
sS'8B 5E'
p504
F154.8967397978408
sS'6B 0E'
p505
F121.10326172320876
sS'14B 2B'
p506
F187.94946129212502
sS'9E 2B'
p507
F123.40583454602137
sS'9E 10E'
p508
F58.25804665451803
sS'6B 0B'
p509
F121.1486689980538
sS'3E 13B'
p510
F198.69826370655582
sS'9E 2E'
p511
F123.3288287465668
sS'9B 13E'
p512
F62.297672508690084
sS'10E 2B'
p513
F169.1892431568863
sS'3E 13E'
p514
F198.15398053029367
sS'4E 11E'
p515
F168.35973390332975
sS'1B 5B'
p516
F26.40075756488817
sS'1B 5E'
p517
F25.495097567963924
sS'4E 11B'
p518
F169.29559947027565
sS'9B 13B'
p519
F62.93647591023825
sS'5E 7B'
p520
F113.26517558367179
sS'3B 5E'
p521
F29.410882339705484
sS'9E 10B'
p522
F57.48912940721924
sS'3B 5B'
p523
F28.460498941515414
sS'5E 7E'
p524
F112.05802068571441
sS'8B 2E'
p525
F148.44864431849825
sS'14B 1E'
p526
F190.3943276465977
sS'10E 11B'
p527
F60.207972893961475
sS'14B 1B'
p528
F189.52572384771415
sS'8B 2B'
p529
F149.03019828209315
sS'2B 9B'
p530
F124.32618388738553
sS'2B 9E'
p531
F123.40583454602137
sS'13E 4E'
p532
F185.06485349736184
sS'2E 12B'
p533
F175.28548142958104
sS'10B 8E'
p534
F51.73973328110612
sS'4B 10B'
p535
F171.09354166653983
sS'10B 8B'
p536
F51.088159097779204
sS'2E 12E'
p537
F175.231275747225
sS'0B 1E'
p538
F2.23606797749979
sS'10E 2E'
p539
F168.86681142249356
sS'0B 1B'
p540
F3.0
sS'1E 12B'
p541
F178.4740877550576
sS'14E 1B'
p542
F189.6549498431296
sS'13B 6B'
p543
F70.60453243241541
sS'1E 12E'
p544
F178.4040358287895
sS'6E 0B'
p545
F120.14990636700472
sS'12B 1E'
p546
F178.4740877550576
sS'12B 1B'
p547
F177.40631330367023
sS'6E 0E'
p548
F120.10412149464314
sS'14E 2E'
p549
F187.94946129212502
sS'1E 7E'
p550
F121.01652779682617
sS'1E 7B'
p551
F122.03687967167957
sS'9B 14B'
p552
F64.5600495662759
sS'14B 2E'
p553
F187.8084130170957
sS'2E 4B'
p554
F15.297058540778355
sS'2E 4E'
p555
F15.297058540778355
sS'9B 14E'
p556
F64.8459713474939
sS'3E 1B'
p557
F50.039984012787215
sS'9E 3B'
p558
F135.988970140964
sS'3E 1E'
p559
F51.088159097779204
sS'6B 13E'
p560
F69.92138442565336
sS'6B 13B'
p561
F70.60453243241541
sS'1E 9B'
p562
F127.09838708654017
sS'7B 13B'
p563
F68.30812543175226
sS'1E 9E'
p564
F126.14277624977183
sS'7B 4E'
p565
F117.88553770501282
sS'9B 0E'
p566
F129.0968628588627
sS'9B 0B'
p567
F129.1394595001853
sS'7B 4B'
p568
F117.88553770501282
sS'0B 8B'
p569
F151.43315356948756
sS'9E 3E'
p570
F135.56548233234005
sS'0B 8E'
p571
F151.99013125857877
sS'12B 6B'
p572
F61.68468205316454
sS'12B 6E'
p573
F62.6418390534633
sS'8E 5E'
p574
F155.58920271021378
sS'4B 8E'
p575
F155.97435686676192
sS'8B 6B'
p576
F78.16009211867653
sS'8B 6E'
p577
F78.23042886243178
sS'4B 8B'
p578
F155.32224567009067
sS'13B 5B'
p579
F181.7305698004604
sS'0E 2B'
p580
F6.4031242374328485
sS'0E 2E'
p581
F5.830951894845301
sS'5B 8B'
p582
F155.58920271021378
sS'8E 2B'
p583
F149.61617559608987
sS'8E 2E'
p584
F149.03019828209315
sS'5B 8E'
p585
F156.28499608087785
sS'9E 4B'
p586
F122.37646832622684
sS'8B 12E'
p587
F109.27488274987991
sS'5B 14E'
p588
F183.65728953678914
sS'1B 0B'
p589
F3.0
sS'8B 12B'
p590
F110.14535850411491
sS'9E 4E'
p591
F122.37646832622684
sS'8E 10B'
p592
F51.73973328110612
sS'4E 6B'
p593
F115.31695452100702
sS'4E 6E'
p594
F114.33722053644648
sS'5E 0B'
p595
F26.92582403567252
sS'13E 11B'
p596
F34.785054261852174
sS'8E 5B'
p597
F156.28499608087785
sS'10E 14B'
p598
F38.2099463490856
sS'13E 11E'
p599
F34.17601498127012
sS'5E 0E'
p600
F27.784887978899608
sS'13B 4E'
p601
F185.80904176062046
sS'14B 4E'
p602
F187.5366630821824
sS'14B 4B'
p603
F187.5366630821824
sS'13B 4B'
p604
F185.80904176062046
sS'0E 5E'
p605
F27.784887978899608
sS'14E 10E'
p606
F37.48332962798263
sS'14E 10B'
p607
F36.76955262170047
sS'12B 10E'
p608
F65.73431371817918
sS'0E 5B'
p609
F28.653097563788805
sS'11E 7B'
p610
F52.952809179494906
sS'0B 14B'
p611
F192.50194804209124
sS'0B 14E'
p612
F192.62917743685665
sS'12E 2B'
p613
F175.18276170902203
sS'11E 7E'
p614
F53.75872022286245
sS'13B 10E'
p615
F36.124783736376884
sS'10B 13B'
p616
F35.38361202590826
sS'8E 10E'
p617
F51.088159097779204
sS'10B 13E'
p618
F33.97057550292606
sS'13B 10B'
p619
F35.38361202590826
sS'12B 10B'
p620
F64.76109943476871
sS'4B 3B'
p621
F34.132096331752024
sS'14E 6B'
p622
F72.53275122315436
sS'4B 3E'
p623
F33.13608305156178
sS'6E 7E'
p624
F4.242640687119285
sS'11B 2B'
p625
F172.04650534085255
sS'6B 4B'
p626
F115.31695452100702
sS'6B 4E'
p627
F115.31695452100702
sS'6E 7B'
p628
F4.47213595499958
sS'12E 14E'
p629
F37.64306044943742
sS'12E 14B'
p630
F36.68787265568828
sS'2E 3E'
p631
F48.0
sS'5B 13B'
p632
F181.7305698004604
sS'7E 10E'
p633
F64.53681120105021
sS'6E 11E'
p634
F57.271284253105414
sS'5B 13E'
p635
F181.0414317221337
sS'2E 3B'
p636
F49.0
sS'3B 9B'
p637
F136.4734406395618
sS'6B 12E'
p638
F61.40032573203501
sS'3B 9E'
p639
F135.988970140964
sS'6E 11B'
p640
F58.463663928973865
sS'14B 6B'
p641
F72.27724399837061
sS'7E 4B'
p642
F116.72617529928752
sS'7E 4E'
p643
F116.72617529928752
sS'0B 5B'
p644
F27.784887978899608
sS'14B 11E'
p645
F33.54101966249684
sS'14B 11B'
p646
F34.0147027033899
sS'0B 5E'
p647
F26.92582403567252
sS'12B 5B'
p648
F166.43316977093238
sS'10E 5E'
p649
F168.6001186239203
sS'12B 5E'
p650
F166.3640586184408
sS'1E 3B'
p651
F52.08646657242167
sS'1E 3E'
p652
F51.088159097779204
sS'1B 14B'
p653
F189.52572384771415
sS'10B 1E'
p654
F170.49633427144408
sS'5B 3E'
p655
F27.51363298439521
sS'5B 3B'
p656
F28.460498941515414
sS'1B 14E'
p657
F189.6549498431296
sS'4B 13E'
p658
F185.06485349736184
sS'7B 10B'
p659
F62.369864518050704
sS'7B 10E'
p660
F63.12685640834652
sS'4B 13B'
p661
F185.80904176062046
sS'4E 1E'
p662
F18.973665961010276
sS'2B 14E'
p663
F188.09572031282372
sS'12B 11E'
p664
F7.211102550927978
sS'2B 14B'
p665
F187.94946129212502
sS'4E 1B'
p666
F17.72004514666935
sS'5E 9E'
p667
F117.881296226331
sS'10E 5B'
p668
F169.04733065032408
sS'5E 9B'
p669
F118.6001686339442
sS'7E 0E'
p670
F123.01625908797584
sS'11B 14E'
p671
F34.92849839314596
sS'11B 14B'
p672
F34.0147027033899
sS'9B 4B'
p673
F123.1665539016173
sS'7B 0B'
p674
F124.06449935416659
sS'7B 0E'
p675
F124.03628501370073
sS'9B 4E'
p676
F123.1665539016173
sS'3E 6B'
p677
F128.80993750483694
sS'3E 6E'
p678
F127.91012469699183
sS'10B 14B'
p679
F37.48332962798263
sS'10B 14E'
p680
F36.76955262170047
sS'5E 12E'
p681
F166.43316977093238
sS'7E 0B'
p682
F123.03657992645927
sS'5E 12B'
p683
F166.3640586184408
sS'12E 1B'
p684
F177.341478509682
sS'12E 0E'
p685
F180.3995565404749
sS'6B 1E'
p686
F119.10499569707393
sS'6B 1B'
p687
F118.15244390193544
sS'12E 0B'
p688
F180.33579788827288
sS'13E 3E'
p689
F198.15398053029367
sS'9E 13E'
p690
F62.93647591023825
sS'3E 12B'
p691
F179.07819521091898
sS'3E 12E'
p692
F179.2930561957155
sS'9E 13B'
p693
F63.60031446463138
sS'1B 4B'
p694
F17.72004514666935
sS'4E 12B'
p695
F172.07265907168403
sS'7E 13E'
p696
F68.9492567037528
sS'7E 13B'
p697
F69.57010852370435
sS'4E 12E'
p698
F172.10461934532728
sS'1B 4E'
p699
F17.72004514666935
sS'9E 0E'
p700
F128.14054783713078
sS'12E 7B'
p701
F57.97413216254298
sS'9E 0B'
p702
F128.191263352851
sS'3B 4B'
p703
F34.132096331752024
sS'8E 11B'
p704
F105.19030373565806
sS'8E 11E'
p705
F103.83159442096611
sS'3B 4E'
p706
F34.132096331752024
sS'14E 3E'
p707
F200.55173896029922
sS'14B 0B'
p708
F192.50194804209124
sS'5E 4E'
p709
F8.48528137423857
sS'8B 3E'
p710
F180.54639292990598
sS'8B 3B'
p711
F181.289823211343
sS'5E 4B'
p712
F8.48528137423857
sS'14B 0E'
p713
F192.37983262286096
sS'3B 11B'
p714
F177.53872816937718
sS'3B 11E'
p715
F176.8219443394965
sS'11E 12B'
p716
F7.211102550927978
sS'6B 12B'
p717
F61.68468205316454
sS'10E 6E'
p718
F64.35060217278468
sS'0B 2E'
p719
F5.385164807134504
sS'13E 6E'
p720
F70.8801805866774
sS'13E 6B'
p721
F69.92138442565336
sS'0B 2B'
p722
F5.830951894845301
sS'1E 11B'
p723
F175.18276170902203
sS'1E 11E'
p724
F174.14074767268
sS'6E 3B'
p725
F128.35108102388543
sS'6E 3E'
p726
F127.91012469699183
sS'11E 12E'
p727
F6.4031242374328485
sS'6B 8E'
p728
F79.1580697086532
sS'2B 7E'
p729
F118.15244390193544
sS'12E 10B'
p730
F63.788713735268246
sS'8B 13B'
p731
F86.31338250816034
sS'2B 7B'
p732
F119.20570456148481
sS'6B 8B'
p733
F78.16009211867653
sS'9B 11E'
p734
F48.507731342539614
sS'7E 14B'
p735
F71.16881339463234
sS'10E 7E'
p736
F64.53681120105021
sS'2E 7B'
p737
F119.15116449284078
sS'2E 7E'
p738
F118.10588469674151
sS'7E 14E'
p739
F71.47027354082255
sS'9B 11B'
p740
F49.72926703662542
sS'11E 2E'
p741
F171.04677722775136
sS'7E 1B'
p742
F120.03749414245534
sS'0B 13B'
p743
F190.64626930522402
sS'0B 13E'
p744
F189.7893569197177
sS'8B 13E'
p745
F84.8999411071645
sS'3E 2E'
p746
F48.0
sS'6E 12E'
p747
F62.36184731067546
sS'6E 12B'
p748
F62.6418390534633
sS'3E 2B'
p749
F47.0
sS'14B 10B'
p750
F37.48332962798263
sS'13B 6E'
p751
F71.56814934033156
sS'9B 3B'
p752
F136.4734406395618
sS'7B 3B'
p753
F131.0953851209111
sS'7B 3E'
p754
F130.6789960169575
sS'9B 3E'
p755
F136.0588108135596
sS'11B 0E'
p756
F177.18069872308325
sS'7E 8E'
p757
F82.05485969764375
sS'7E 8B'
p758
F81.05553651663777
sS'0B 9E'
p759
F128.191263352851
sS'0B 9B'
p760
F129.1394595001853
sS'10E 6B'
p761
F63.655321851358195
sS'0E 1B'
p762
F3.1622776601683795
sS'0E 1E'
p763
F2.0
sS'8E 1B'
p764
F149.5125412799876
sS'8E 1E'
p765
F149.77316181479245
sS'10B 7B'
p766
F62.369864518050704
sS'8B 11E'
p767
F102.95630140987001
sS'8B 11B'
p768
F104.31682510506155
sS'12B 14E'
p769
F38.600518131237564
sS'11E 8B'
p770
F102.95630140987001
sS'2B 10B'
p771
F168.86681142249356
sS'4E 5B'
p772
F9.219544457292887
sS'4E 5E'
p773
F8.48528137423857
sS'11B 7E'
p774
F54.91812087098393
sS'2B 10E'
p775
F169.1892431568863
sS'11B 5E'
p776
F163.783393541592
sS'0E 12E'
p777
F180.3995565404749
sS'0E 12B'
p778
F180.46883387443938
sS'0E 8B'
p779
F150.88074761214565
sS'13B 1E'
p780
F188.53381659532593
sS'14B 7E'
p781
F71.16881339463234
sS'14B 7B'
p782
F69.92138442565336
sS'13B 1B'
p783
F187.6725872363889
sS'0E 8E'
p784
F151.43315356948756
sS'14E 13E'
p785
F3.1622776601683795
sS'14E 13B'
p786
F2.0
sS'1B 11E'
p787
F173.1040149736568
sS'5B 6E'
p788
F110.16351483136329
sS'9B 8E'
p789
F79.05694150420949
sS'9B 8B'
p790
F78.05767098754612
sS'5B 6B'
p791
F111.12605455067681
sS'1B 11B'
p792
F174.14074767268
sS'12E 1E'
p793
F178.4040358287895
sS'8E 14E'
p794
F88.45903006477066
sS'11E 6E'
p795
F57.271284253105414
sS'8E 14B'
p796
F89.1403387922662
sS'13E 5E'
p797
F180.76780686836912
sS'13E 5B'
p798
F181.0414317221337
sS'1E 14E'
p799
F190.51771571168914
sS'13E 3B'
p800
F198.53966858036205
sS'11B 4B'
p801
F169.29559947027565
sS'1E 14B'
p802
F190.3943276465977
sS'6B 5B'
p803
F111.12605455067681
sS'4B 0E'
p804
F19.697715603592208
sS'12B 0B'
p805
F180.3995565404749
sS'4B 0B'
p806
F18.788294228055936
sS'6B 5E'
p807
F110.86027241532469
sS'2B 4E'
p808
F14.317821063276353
sS'2B 4B'
p809
F14.317821063276353
sS'14E 4B'
p810
F187.7578227398262
sS'14E 4E'
p811
F187.7578227398262
sS'11B 2E'
p812
F172.07265907168403
sS'10E 3E'
p813
F189.74720024284943
sS'5B 10B'
p814
F168.6001186239203
sS'11E 9B'
p815
F48.507731342539614
sS'11B 0B'
p816
F177.1383639983163
sS'2E 13B'
p817
F185.9704277566732
sS'2E 13E'
p818
F185.129684275645
sS'13E 2B'
p819
F185.28356645962967
sS'14B 12E'
p820
F36.68787265568828
sS'0B 6B'
p821
F121.1486689980538
sS'0B 6E'
p822
F120.14990636700472
sS'14B 12B'
p823
F37.64306044943742
sS'13E 2E'
p824
F185.129684275645
sS'11E 9E'
p825
F49.72926703662542
sS'11E 13B'
p826
F33.61547262794322
sS'11E 13E'
p827
F34.17601498127012
sS'6B 2B'
p828
F116.3486140871476
sS'12B 0E'
p829
F180.46883387443938
sS'5B 10E'
p830
F169.04733065032408
sS'11B 1E'
p831
F175.18276170902203
sS'10B 2B'
p832
F168.86681142249356
sS'1E 4B'
p833
F18.973665961010276
sS'2B 3B'
p834
F48.0
sS'2B 3E'
p835
F47.0
sS'1E 4E'
p836
F18.973665961010276
sS'3B 12B'
p837
F179.2930561957155
sS'10B 6B'
p838
F62.93647591023825
sS'10B 6E'
p839
F63.63961030678928
sS'3B 12E'
p840
F179.51323071016242
s.